
obj/net/ns：     文件格式 elf32-i386


Disassembly of section .text:

00800020 <_start>:
// starts us running when we are initially loaded into a new environment.
.text
.globl _start
_start:
	// See if we were started with arguments on the stack
	cmpl $USTACKTOP, %esp
  800020:	81 fc 00 e0 bf ee    	cmp    $0xeebfe000,%esp
	jne args_exist
  800026:	75 04                	jne    80002c <args_exist>

	// If not, push dummy argc/argv arguments.
	// This happens when we are loaded by the kernel,
	// because the kernel does not know about passing arguments.
	pushl $0
  800028:	6a 00                	push   $0x0
	pushl $0
  80002a:	6a 00                	push   $0x0

0080002c <args_exist>:

args_exist:
	call libmain//调用lib/libmain.c中的libmain()
  80002c:	e8 45 e4 00 00       	call   80e476 <libmain>
1:	jmp 1b
  800031:	eb fe                	jmp    800031 <args_exist+0x5>

00800033 <tcpip_init_done>:
		panic("cannot create timer thread: %s", e2s(r));
}

static void
tcpip_init_done(void *arg)
{
  800033:	55                   	push   %ebp
  800034:	89 e5                	mov    %esp,%ebp
  800036:	83 ec 14             	sub    $0x14,%esp
  800039:	8b 45 08             	mov    0x8(%ebp),%eax
	uint32_t *done = arg;
	*done = 1;
  80003c:	c7 00 01 00 00 00    	movl   $0x1,(%eax)
	thread_wakeup(done);
  800042:	50                   	push   %eax
  800043:	e8 13 a5 00 00       	call   80a55b <thread_wakeup>
}
  800048:	83 c4 10             	add    $0x10,%esp
  80004b:	c9                   	leave  
  80004c:	c3                   	ret    

0080004d <start_timer>:
{
  80004d:	55                   	push   %ebp
  80004e:	89 e5                	mov    %esp,%ebp
  800050:	53                   	push   %ebx
  800051:	83 ec 04             	sub    $0x4,%esp
	t->msec = msec;
  800054:	8b 5d 08             	mov    0x8(%ebp),%ebx
  800057:	89 18                	mov    %ebx,(%eax)
	t->func = func;
  800059:	89 50 04             	mov    %edx,0x4(%eax)
	t->name = name;
  80005c:	89 48 08             	mov    %ecx,0x8(%eax)
	int r = thread_create(0, name, &net_timer, (uint32_t)t);
  80005f:	50                   	push   %eax
  800060:	68 94 00 80 00       	push   $0x800094
  800065:	51                   	push   %ecx
  800066:	6a 00                	push   $0x0
  800068:	e8 59 a5 00 00       	call   80a5c6 <thread_create>
	if (r < 0)
  80006d:	83 c4 10             	add    $0x10,%esp
  800070:	85 c0                	test   %eax,%eax
  800072:	78 05                	js     800079 <start_timer+0x2c>
}
  800074:	8b 5d fc             	mov    -0x4(%ebp),%ebx
  800077:	c9                   	leave  
  800078:	c3                   	ret    
		panic("cannot create timer thread: %s", e2s(r));
  800079:	83 ec 0c             	sub    $0xc,%esp
  80007c:	50                   	push   %eax
  80007d:	e8 77 a8 00 00       	call   80a8f9 <e2s>
  800082:	50                   	push   %eax
  800083:	68 00 0c 81 00       	push   $0x810c00
  800088:	6a 7a                	push   $0x7a
  80008a:	68 35 0d 81 00       	push   $0x810d35
  80008f:	e8 42 e4 00 00       	call   80e4d6 <_panic>

00800094 <net_timer>:
{
  800094:	55                   	push   %ebp
  800095:	89 e5                	mov    %esp,%ebp
  800097:	56                   	push   %esi
  800098:	53                   	push   %ebx
  800099:	8b 75 08             	mov    0x8(%ebp),%esi
		uint32_t cur = sys_time_msec();
  80009c:	e8 d7 f0 00 00       	call   80f178 <sys_time_msec>
  8000a1:	89 c3                	mov    %eax,%ebx
		lwip_core_lock();
  8000a3:	e8 8a a4 00 00       	call   80a532 <lwip_core_lock>
		t->func();
  8000a8:	ff 56 04             	call   *0x4(%esi)
		lwip_core_unlock();
  8000ab:	e8 83 a4 00 00       	call   80a533 <lwip_core_unlock>
		thread_wait(0, 0, cur + t->msec);
  8000b0:	83 ec 04             	sub    $0x4,%esp
  8000b3:	03 1e                	add    (%esi),%ebx
  8000b5:	53                   	push   %ebx
  8000b6:	6a 00                	push   $0x0
  8000b8:	6a 00                	push   $0x0
  8000ba:	e8 ad a6 00 00       	call   80a76c <thread_wait>
  8000bf:	83 c4 10             	add    $0x10,%esp
  8000c2:	eb d8                	jmp    80009c <net_timer+0x8>

008000c4 <serve_thread>:
	uint32_t whom;
	union Nsipc *req;
};

static void
serve_thread(uint32_t a) {
  8000c4:	55                   	push   %ebp
  8000c5:	89 e5                	mov    %esp,%ebp
  8000c7:	57                   	push   %edi
  8000c8:	56                   	push   %esi
  8000c9:	53                   	push   %ebx
  8000ca:	83 ec 7c             	sub    $0x7c,%esp
  8000cd:	8b 5d 08             	mov    0x8(%ebp),%ebx
	struct st_args *args = (struct st_args *)a;
	union Nsipc *req = args->req;
  8000d0:	8b 7b 08             	mov    0x8(%ebx),%edi
	int r;

	switch (args->reqno) {
  8000d3:	83 3b 0a             	cmpl   $0xa,(%ebx)
  8000d6:	0f 87 4f 01 00 00    	ja     80022b <serve_thread+0x167>
  8000dc:	8b 03                	mov    (%ebx),%eax
  8000de:	ff 24 85 e0 0d 81 00 	jmp    *0x810de0(,%eax,4)
	case NSREQ_ACCEPT:
	{
		struct Nsret_accept ret;
		ret.ret_addrlen = req->accept.req_addrlen;
  8000e5:	8b 47 04             	mov    0x4(%edi),%eax
  8000e8:	89 45 94             	mov    %eax,-0x6c(%ebp)
		r = lwip_accept(req->accept.req_s, &ret.ret_addr,
  8000eb:	83 ec 04             	sub    $0x4,%esp
  8000ee:	8d 45 94             	lea    -0x6c(%ebp),%eax
  8000f1:	50                   	push   %eax
  8000f2:	8d 45 84             	lea    -0x7c(%ebp),%eax
  8000f5:	50                   	push   %eax
  8000f6:	ff 37                	push   (%edi)
  8000f8:	e8 bc 0d 00 00       	call   800eb9 <lwip_accept>
  8000fd:	89 c6                	mov    %eax,%esi
				&ret.ret_addrlen);
		memmove(req, &ret, sizeof ret);
  8000ff:	83 c4 0c             	add    $0xc,%esp
  800102:	6a 14                	push   $0x14
  800104:	8d 45 84             	lea    -0x7c(%ebp),%eax
  800107:	50                   	push   %eax
  800108:	57                   	push   %edi
  800109:	e8 13 ec 00 00       	call   80ed21 <memmove>
  80010e:	83 c4 10             	add    $0x10,%esp
		cprintf("Invalid request code %d from %08x\n", args->whom, args->req);
		r = -E_INVAL;
		break;
	}

	if (r == -1) {
  800111:	83 fe ff             	cmp    $0xffffffff,%esi
  800114:	0f 84 2f 01 00 00    	je     800249 <serve_thread+0x185>
		char buf[100];
		snprintf(buf, sizeof buf, "ns req type %d", args->reqno);
		perror(buf);
	}

	if (args->reqno != NSREQ_INPUT)
  80011a:	83 3b 0a             	cmpl   $0xa,(%ebx)
  80011d:	0f 85 48 01 00 00    	jne    80026b <serve_thread+0x1a7>
		ipc_send(args->whom, r, 0, 0);

	put_buffer(args->req);
  800123:	8b 53 08             	mov    0x8(%ebx),%edx
	int i = ((uint32_t)va - REQVA) / PGSIZE;
  800126:	8d 82 00 50 01 f0    	lea    -0xffeb000(%edx),%eax
  80012c:	c1 e8 0c             	shr    $0xc,%eax
	buse[i] = 0;
  80012f:	c6 80 38 50 81 00 00 	movb   $0x0,0x815038(%eax)
	sys_page_unmap(0, (void*) args->req);
  800136:	83 ec 08             	sub    $0x8,%esp
  800139:	52                   	push   %edx
  80013a:	6a 00                	push   $0x0
  80013c:	e8 cb ee 00 00       	call   80f00c <sys_page_unmap>
	free(args);
  800141:	89 1c 24             	mov    %ebx,(%esp)
  800144:	e8 52 00 01 00       	call   81019b <free>
}
  800149:	83 c4 10             	add    $0x10,%esp
  80014c:	8d 65 f4             	lea    -0xc(%ebp),%esp
  80014f:	5b                   	pop    %ebx
  800150:	5e                   	pop    %esi
  800151:	5f                   	pop    %edi
  800152:	5d                   	pop    %ebp
  800153:	c3                   	ret    
		r = lwip_bind(req->bind.req_s, &req->bind.req_name,
  800154:	83 ec 04             	sub    $0x4,%esp
  800157:	ff 77 14             	push   0x14(%edi)
  80015a:	8d 47 04             	lea    0x4(%edi),%eax
  80015d:	50                   	push   %eax
  80015e:	ff 37                	push   (%edi)
  800160:	e8 0e 0f 00 00       	call   801073 <lwip_bind>
  800165:	89 c6                	mov    %eax,%esi
		break;
  800167:	83 c4 10             	add    $0x10,%esp
  80016a:	eb a5                	jmp    800111 <serve_thread+0x4d>
		r = lwip_shutdown(req->shutdown.req_s, req->shutdown.req_how);
  80016c:	83 ec 08             	sub    $0x8,%esp
  80016f:	ff 77 04             	push   0x4(%edi)
  800172:	ff 37                	push   (%edi)
  800174:	e8 25 1a 00 00       	call   801b9e <lwip_shutdown>
  800179:	89 c6                	mov    %eax,%esi
		break;
  80017b:	83 c4 10             	add    $0x10,%esp
  80017e:	eb 91                	jmp    800111 <serve_thread+0x4d>
		r = lwip_close(req->close.req_s);
  800180:	83 ec 0c             	sub    $0xc,%esp
  800183:	ff 37                	push   (%edi)
  800185:	e8 9f 0f 00 00       	call   801129 <lwip_close>
  80018a:	89 c6                	mov    %eax,%esi
		break;
  80018c:	83 c4 10             	add    $0x10,%esp
  80018f:	eb 80                	jmp    800111 <serve_thread+0x4d>
		r = lwip_connect(req->connect.req_s, &req->connect.req_name,
  800191:	83 ec 04             	sub    $0x4,%esp
  800194:	ff 77 14             	push   0x14(%edi)
  800197:	8d 47 04             	lea    0x4(%edi),%eax
  80019a:	50                   	push   %eax
  80019b:	ff 37                	push   (%edi)
  80019d:	e8 10 10 00 00       	call   8011b2 <lwip_connect>
  8001a2:	89 c6                	mov    %eax,%esi
		break;
  8001a4:	83 c4 10             	add    $0x10,%esp
  8001a7:	e9 65 ff ff ff       	jmp    800111 <serve_thread+0x4d>
		r = lwip_listen(req->listen.req_s, req->listen.req_backlog);
  8001ac:	83 ec 08             	sub    $0x8,%esp
  8001af:	ff 77 04             	push   0x4(%edi)
  8001b2:	ff 37                	push   (%edi)
  8001b4:	e8 af 10 00 00       	call   801268 <lwip_listen>
  8001b9:	89 c6                	mov    %eax,%esi
		break;
  8001bb:	83 c4 10             	add    $0x10,%esp
  8001be:	e9 4e ff ff ff       	jmp    800111 <serve_thread+0x4d>
		r = lwip_recv(req->recv.req_s, req->recvRet.ret_buf,
  8001c3:	ff 77 08             	push   0x8(%edi)
  8001c6:	ff 77 04             	push   0x4(%edi)
  8001c9:	57                   	push   %edi
  8001ca:	ff 37                	push   (%edi)
  8001cc:	e8 7c 13 00 00       	call   80154d <lwip_recv>
  8001d1:	89 c6                	mov    %eax,%esi
		break;
  8001d3:	83 c4 10             	add    $0x10,%esp
  8001d6:	e9 36 ff ff ff       	jmp    800111 <serve_thread+0x4d>
		r = lwip_send(req->send.req_s, &req->send.req_buf,
  8001db:	ff 77 08             	push   0x8(%edi)
  8001de:	ff 77 04             	push   0x4(%edi)
  8001e1:	8d 47 0c             	lea    0xc(%edi),%eax
  8001e4:	50                   	push   %eax
  8001e5:	ff 37                	push   (%edi)
  8001e7:	e8 eb 14 00 00       	call   8016d7 <lwip_send>
  8001ec:	89 c6                	mov    %eax,%esi
		break;
  8001ee:	83 c4 10             	add    $0x10,%esp
  8001f1:	e9 1b ff ff ff       	jmp    800111 <serve_thread+0x4d>
		r = lwip_socket(req->socket.req_domain, req->socket.req_type,
  8001f6:	83 ec 04             	sub    $0x4,%esp
  8001f9:	ff 77 08             	push   0x8(%edi)
  8001fc:	ff 77 04             	push   0x4(%edi)
  8001ff:	ff 37                	push   (%edi)
  800201:	e8 5f 15 00 00       	call   801765 <lwip_socket>
  800206:	89 c6                	mov    %eax,%esi
		break;
  800208:	83 c4 10             	add    $0x10,%esp
  80020b:	e9 01 ff ff ff       	jmp    800111 <serve_thread+0x4d>
		jif_input(&nif, (void *)&req->pkt);
  800210:	83 ec 08             	sub    $0x8,%esp
  800213:	57                   	push   %edi
  800214:	68 00 50 81 00       	push   $0x815000
  800219:	e8 c2 a7 00 00       	call   80a9e0 <jif_input>
  80021e:	83 c4 10             	add    $0x10,%esp
		r = 0;
  800221:	be 00 00 00 00       	mov    $0x0,%esi
  800226:	e9 ef fe ff ff       	jmp    80011a <serve_thread+0x56>
		cprintf("Invalid request code %d from %08x\n", args->whom, args->req);
  80022b:	83 ec 04             	sub    $0x4,%esp
  80022e:	57                   	push   %edi
  80022f:	ff 73 04             	push   0x4(%ebx)
  800232:	68 20 0c 81 00       	push   $0x810c20
  800237:	e8 75 e3 00 00       	call   80e5b1 <cprintf>
  80023c:	83 c4 10             	add    $0x10,%esp
		r = -E_INVAL;
  80023f:	be fd ff ff ff       	mov    $0xfffffffd,%esi
  800244:	e9 d1 fe ff ff       	jmp    80011a <serve_thread+0x56>
		snprintf(buf, sizeof buf, "ns req type %d", args->reqno);
  800249:	ff 33                	push   (%ebx)
  80024b:	68 40 0d 81 00       	push   $0x810d40
  800250:	6a 64                	push   $0x64
  800252:	8d 7d 84             	lea    -0x7c(%ebp),%edi
  800255:	57                   	push   %edi
  800256:	e8 db e8 00 00       	call   80eb36 <snprintf>
		perror(buf);
  80025b:	89 3c 24             	mov    %edi,(%esp)
  80025e:	e8 72 a6 00 00       	call   80a8d5 <perror>
  800263:	83 c4 10             	add    $0x10,%esp
  800266:	e9 af fe ff ff       	jmp    80011a <serve_thread+0x56>
		ipc_send(args->whom, r, 0, 0);
  80026b:	6a 00                	push   $0x0
  80026d:	6a 00                	push   $0x0
  80026f:	56                   	push   %esi
  800270:	ff 73 04             	push   0x4(%ebx)
  800273:	e8 46 f2 00 00       	call   80f4be <ipc_send>
  800278:	83 c4 10             	add    $0x10,%esp
  80027b:	e9 a3 fe ff ff       	jmp    800123 <serve_thread+0x5f>

00800280 <serve_init>:
{
  800280:	55                   	push   %ebp
  800281:	89 e5                	mov    %esp,%ebp
  800283:	56                   	push   %esi
  800284:	53                   	push   %ebx
  800285:	83 ec 10             	sub    $0x10,%esp
  800288:	8b 75 08             	mov    0x8(%ebp),%esi
	lwip_core_lock();
  80028b:	e8 a2 a2 00 00       	call   80a532 <lwip_core_lock>
	uint32_t done = 0;
  800290:	c7 45 f4 00 00 00 00 	movl   $0x0,-0xc(%ebp)
	tcpip_init(&tcpip_init_done, &done);
  800297:	83 ec 08             	sub    $0x8,%esp
  80029a:	8d 5d f4             	lea    -0xc(%ebp),%ebx
  80029d:	53                   	push   %ebx
  80029e:	68 33 00 80 00       	push   $0x800033
  8002a3:	e8 7b 21 00 00       	call   802423 <tcpip_init>
	lwip_core_unlock();
  8002a8:	e8 86 a2 00 00       	call   80a533 <lwip_core_unlock>
	thread_wait(&done, 0, (uint32_t)~0);
  8002ad:	83 c4 0c             	add    $0xc,%esp
  8002b0:	6a ff                	push   $0xffffffff
  8002b2:	6a 00                	push   $0x0
  8002b4:	53                   	push   %ebx
  8002b5:	e8 b2 a4 00 00       	call   80a76c <thread_wait>
	lwip_core_lock();
  8002ba:	e8 73 a2 00 00       	call   80a532 <lwip_core_lock>
	ipaddr.addr  = init_addr;
  8002bf:	89 75 e8             	mov    %esi,-0x18(%ebp)
	netmask.addr = init_mask;
  8002c2:	8b 45 0c             	mov    0xc(%ebp),%eax
  8002c5:	89 45 ec             	mov    %eax,-0x14(%ebp)
	gateway.addr = init_gw;
  8002c8:	8b 45 10             	mov    0x10(%ebp),%eax
  8002cb:	89 45 f0             	mov    %eax,-0x10(%ebp)
	if (0 == netif_add(nif, &ipaddr, &netmask, &gateway,
  8002ce:	83 c4 0c             	add    $0xc,%esp
  8002d1:	68 ec 64 80 00       	push   $0x8064ec
  8002d6:	68 ce aa 80 00       	push   $0x80aace
  8002db:	68 4c 50 81 00       	push   $0x81504c
  8002e0:	8d 45 f0             	lea    -0x10(%ebp),%eax
  8002e3:	50                   	push   %eax
  8002e4:	8d 45 ec             	lea    -0x14(%ebp),%eax
  8002e7:	50                   	push   %eax
  8002e8:	8d 45 e8             	lea    -0x18(%ebp),%eax
  8002eb:	50                   	push   %eax
  8002ec:	68 00 50 81 00       	push   $0x815000
  8002f1:	e8 70 43 00 00       	call   804666 <netif_add>
  8002f6:	83 c4 20             	add    $0x20,%esp
  8002f9:	85 c0                	test   %eax,%eax
  8002fb:	0f 84 cc 00 00 00    	je     8003cd <serve_init+0x14d>
	netif_set_default(nif);
  800301:	83 ec 0c             	sub    $0xc,%esp
  800304:	68 00 50 81 00       	push   $0x815000
  800309:	e8 0a 44 00 00       	call   804718 <netif_set_default>
	netif_set_up(nif);
  80030e:	c7 04 24 00 50 81 00 	movl   $0x815000,(%esp)
  800315:	e8 0b 44 00 00       	call   804725 <netif_set_up>
	start_timer(&t_arp, &etharp_tmr, "arp timer", ARP_TMR_INTERVAL);
  80031a:	c7 04 24 88 13 00 00 	movl   $0x1388,(%esp)
  800321:	b9 4f 0d 81 00       	mov    $0x810d4f,%ecx
  800326:	ba 6e 94 80 00       	mov    $0x80946e,%edx
  80032b:	b8 6c 50 81 00       	mov    $0x81506c,%eax
  800330:	e8 18 fd ff ff       	call   80004d <start_timer>
	start_timer(&t_tcpf, &tcp_fasttmr, "tcp f timer", TCP_FAST_INTERVAL);
  800335:	c7 04 24 fa 00 00 00 	movl   $0xfa,(%esp)
  80033c:	b9 59 0d 81 00       	mov    $0x810d59,%ecx
  800341:	ba b8 56 80 00       	mov    $0x8056b8,%edx
  800346:	b8 60 50 81 00       	mov    $0x815060,%eax
  80034b:	e8 fd fc ff ff       	call   80004d <start_timer>
	start_timer(&t_tcps, &tcp_slowtmr, "tcp s timer", TCP_SLOW_INTERVAL);
  800350:	c7 04 24 f4 01 00 00 	movl   $0x1f4,(%esp)
  800357:	b9 65 0d 81 00       	mov    $0x810d65,%ecx
  80035c:	ba 4b 5c 80 00       	mov    $0x805c4b,%edx
  800361:	b8 54 50 81 00       	mov    $0x815054,%eax
  800366:	e8 e2 fc ff ff       	call   80004d <start_timer>
	cprintf("ns: %02x:%02x:%02x:%02x:%02x:%02x"
  80036b:	89 34 24             	mov    %esi,(%esp)
  80036e:	e8 71 72 00 00       	call   8075e4 <inet_ntoa>
  800373:	50                   	push   %eax
  800374:	0f b6 05 2a 50 81 00 	movzbl 0x81502a,%eax
  80037b:	50                   	push   %eax
  80037c:	0f b6 05 29 50 81 00 	movzbl 0x815029,%eax
  800383:	50                   	push   %eax
  800384:	0f b6 05 28 50 81 00 	movzbl 0x815028,%eax
  80038b:	50                   	push   %eax
  80038c:	0f b6 05 27 50 81 00 	movzbl 0x815027,%eax
  800393:	50                   	push   %eax
  800394:	0f b6 05 26 50 81 00 	movzbl 0x815026,%eax
  80039b:	50                   	push   %eax
  80039c:	0f b6 05 25 50 81 00 	movzbl 0x815025,%eax
  8003a3:	50                   	push   %eax
  8003a4:	68 64 0c 81 00       	push   $0x810c64
  8003a9:	e8 03 e2 00 00       	call   80e5b1 <cprintf>
	lwip_core_unlock();
  8003ae:	83 c4 30             	add    $0x30,%esp
  8003b1:	e8 7d a1 00 00       	call   80a533 <lwip_core_unlock>
	cprintf("NS: TCP/IP initialized.\n");
  8003b6:	83 ec 0c             	sub    $0xc,%esp
  8003b9:	68 71 0d 81 00       	push   $0x810d71
  8003be:	e8 ee e1 00 00       	call   80e5b1 <cprintf>
}
  8003c3:	83 c4 10             	add    $0x10,%esp
  8003c6:	8d 65 f8             	lea    -0x8(%ebp),%esp
  8003c9:	5b                   	pop    %ebx
  8003ca:	5e                   	pop    %esi
  8003cb:	5d                   	pop    %ebp
  8003cc:	c3                   	ret    
		panic("lwip_init: error in netif_add\n");
  8003cd:	83 ec 04             	sub    $0x4,%esp
  8003d0:	68 44 0c 81 00       	push   $0x810c44
  8003d5:	6a 5c                	push   $0x5c
  8003d7:	68 35 0d 81 00       	push   $0x810d35
  8003dc:	e8 f5 e0 00 00       	call   80e4d6 <_panic>

008003e1 <serve>:

void
serve(void) {
  8003e1:	55                   	push   %ebp
  8003e2:	89 e5                	mov    %esp,%ebp
  8003e4:	57                   	push   %edi
  8003e5:	56                   	push   %esi
  8003e6:	53                   	push   %ebx
  8003e7:	83 ec 2c             	sub    $0x2c,%esp
		for (i = 0; thread_wakeups_pending() && i < 32; ++i)
			thread_yield();

		perm = 0;
		va = get_buffer();
		reqno = ipc_recv((int32_t *) &whom, (void *) va, &perm);
  8003ea:	8d 7d e0             	lea    -0x20(%ebp),%edi
  8003ed:	e9 b3 00 00 00       	jmp    8004a5 <serve+0xc4>
			thread_yield();
  8003f2:	e8 f2 a2 00 00       	call   80a6e9 <thread_yield>
		for (i = 0; thread_wakeups_pending() && i < 32; ++i)
  8003f7:	83 c3 01             	add    $0x1,%ebx
  8003fa:	e8 7d a1 00 00       	call   80a57c <thread_wakeups_pending>
  8003ff:	85 c0                	test   %eax,%eax
  800401:	74 05                	je     800408 <serve+0x27>
  800403:	83 fb 1f             	cmp    $0x1f,%ebx
  800406:	7e ea                	jle    8003f2 <serve+0x11>
		perm = 0;
  800408:	c7 45 e0 00 00 00 00 	movl   $0x0,-0x20(%ebp)
	for (i = 0; i < QUEUE_SIZE; i++)
  80040f:	b8 00 00 00 00       	mov    $0x0,%eax
		if (!buse[i]) break;
  800414:	80 b8 38 50 81 00 00 	cmpb   $0x0,0x815038(%eax)
  80041b:	74 1c                	je     800439 <serve+0x58>
	for (i = 0; i < QUEUE_SIZE; i++)
  80041d:	83 c0 01             	add    $0x1,%eax
  800420:	83 f8 14             	cmp    $0x14,%eax
  800423:	75 ef                	jne    800414 <serve+0x33>
		panic("NS: buffer overflow");
  800425:	83 ec 04             	sub    $0x4,%esp
  800428:	68 8a 0d 81 00       	push   $0x810d8a
  80042d:	6a 3f                	push   $0x3f
  80042f:	68 35 0d 81 00       	push   $0x810d35
  800434:	e8 9d e0 00 00       	call   80e4d6 <_panic>
	va = (void *)(REQVA + i * PGSIZE);
  800439:	8d 98 eb ff 00 00    	lea    0xffeb(%eax),%ebx
  80043f:	c1 e3 0c             	shl    $0xc,%ebx
	buse[i] = 1;
  800442:	c6 80 38 50 81 00 01 	movb   $0x1,0x815038(%eax)
		reqno = ipc_recv((int32_t *) &whom, (void *) va, &perm);
  800449:	83 ec 04             	sub    $0x4,%esp
  80044c:	57                   	push   %edi
  80044d:	53                   	push   %ebx
  80044e:	8d 45 e4             	lea    -0x1c(%ebp),%eax
  800451:	50                   	push   %eax
  800452:	e8 00 f0 00 00       	call   80f457 <ipc_recv>
  800457:	89 c6                	mov    %eax,%esi
		if (debug) {
			cprintf("ns req %d from %08x\n", reqno, whom);
		}

		// first take care of requests that do not contain an argument page
		if (reqno == NSREQ_TIMER) {
  800459:	83 c4 10             	add    $0x10,%esp
  80045c:	83 f8 0c             	cmp    $0xc,%eax
  80045f:	74 4e                	je     8004af <serve+0xce>
			put_buffer(va);
			continue;
		}

		// All remaining requests must contain an argument page
		if (!(perm & PTE_P)) {
  800461:	f6 45 e0 01          	testb  $0x1,-0x20(%ebp)
  800465:	0f 84 a0 00 00 00    	je     80050b <serve+0x12a>
			continue; // just leave it hanging...
		}

		// Since some lwIP socket calls will block, create a thread and
		// process the rest of the request in the thread.
		struct st_args *args = malloc(sizeof(struct st_args));
  80046b:	83 ec 0c             	sub    $0xc,%esp
  80046e:	6a 0c                	push   $0xc
  800470:	e8 d2 fd 00 00       	call   810247 <malloc>
		if (!args)
  800475:	83 c4 10             	add    $0x10,%esp
  800478:	85 c0                	test   %eax,%eax
  80047a:	0f 84 a0 00 00 00    	je     800520 <serve+0x13f>
			panic("could not allocate thread args structure");

		args->reqno = reqno;
  800480:	89 30                	mov    %esi,(%eax)
		args->whom = whom;
  800482:	8b 55 e4             	mov    -0x1c(%ebp),%edx
  800485:	89 50 04             	mov    %edx,0x4(%eax)
		args->req = va;
  800488:	89 58 08             	mov    %ebx,0x8(%eax)

		thread_create(0, "serve_thread", serve_thread, (uint32_t)args);
  80048b:	50                   	push   %eax
  80048c:	68 c4 00 80 00       	push   $0x8000c4
  800491:	68 9e 0d 81 00       	push   $0x810d9e
  800496:	6a 00                	push   $0x0
  800498:	e8 29 a1 00 00       	call   80a5c6 <thread_create>
		thread_yield(); // let the thread created run
  80049d:	e8 47 a2 00 00       	call   80a6e9 <thread_yield>
  8004a2:	83 c4 10             	add    $0x10,%esp
		for (i = 0; thread_wakeups_pending() && i < 32; ++i)
  8004a5:	bb 00 00 00 00       	mov    $0x0,%ebx
  8004aa:	e9 4b ff ff ff       	jmp    8003fa <serve+0x19>
			process_timer(whom);
  8004af:	8b 75 e4             	mov    -0x1c(%ebp),%esi
	if (envid != timer_envid) {
  8004b2:	3b 35 50 50 81 00    	cmp    0x815050,%esi
  8004b8:	74 23                	je     8004dd <serve+0xfc>
		cprintf("NS: received timer interrupt from envid %x not timer env\n", envid);
  8004ba:	83 ec 08             	sub    $0x8,%esp
  8004bd:	56                   	push   %esi
  8004be:	68 a0 0c 81 00       	push   $0x810ca0
  8004c3:	e8 e9 e0 00 00       	call   80e5b1 <cprintf>
		return;
  8004c8:	83 c4 10             	add    $0x10,%esp
	int i = ((uint32_t)va - REQVA) / PGSIZE;
  8004cb:	81 eb 00 b0 fe 0f    	sub    $0xffeb000,%ebx
  8004d1:	c1 eb 0c             	shr    $0xc,%ebx
	buse[i] = 0;
  8004d4:	c6 83 38 50 81 00 00 	movb   $0x0,0x815038(%ebx)
			continue;
  8004db:	eb c8                	jmp    8004a5 <serve+0xc4>
	start = sys_time_msec();
  8004dd:	e8 96 ec 00 00       	call   80f178 <sys_time_msec>
  8004e2:	89 45 d4             	mov    %eax,-0x2c(%ebp)
	thread_yield();
  8004e5:	e8 ff a1 00 00       	call   80a6e9 <thread_yield>
	now = sys_time_msec();
  8004ea:	e8 89 ec 00 00       	call   80f178 <sys_time_msec>
  8004ef:	89 c2                	mov    %eax,%edx
	ipc_send(envid, to, 0, 0);
  8004f1:	6a 00                	push   $0x0
  8004f3:	6a 00                	push   $0x0
	to = TIMER_INTERVAL - (now - start);
  8004f5:	8b 45 d4             	mov    -0x2c(%ebp),%eax
  8004f8:	05 fa 00 00 00       	add    $0xfa,%eax
  8004fd:	29 d0                	sub    %edx,%eax
	ipc_send(envid, to, 0, 0);
  8004ff:	50                   	push   %eax
  800500:	56                   	push   %esi
  800501:	e8 b8 ef 00 00       	call   80f4be <ipc_send>
  800506:	83 c4 10             	add    $0x10,%esp
  800509:	eb c0                	jmp    8004cb <serve+0xea>
			cprintf("Invalid request from %08x: no argument page\n", whom);
  80050b:	83 ec 08             	sub    $0x8,%esp
  80050e:	ff 75 e4             	push   -0x1c(%ebp)
  800511:	68 dc 0c 81 00       	push   $0x810cdc
  800516:	e8 96 e0 00 00       	call   80e5b1 <cprintf>
			continue; // just leave it hanging...
  80051b:	83 c4 10             	add    $0x10,%esp
  80051e:	eb 85                	jmp    8004a5 <serve+0xc4>
			panic("could not allocate thread args structure");
  800520:	83 ec 04             	sub    $0x4,%esp
  800523:	68 0c 0d 81 00       	push   $0x810d0c
  800528:	68 27 01 00 00       	push   $0x127
  80052d:	68 35 0d 81 00       	push   $0x810d35
  800532:	e8 9f df 00 00       	call   80e4d6 <_panic>

00800537 <tmain>:
	}
}

static void
tmain(uint32_t arg) {
  800537:	55                   	push   %ebp
  800538:	89 e5                	mov    %esp,%ebp
  80053a:	56                   	push   %esi
  80053b:	53                   	push   %ebx
	serve_init(inet_addr(IP),
  80053c:	83 ec 0c             	sub    $0xc,%esp
  80053f:	68 ab 0d 81 00       	push   $0x810dab
  800544:	e8 5d 73 00 00       	call   8078a6 <inet_addr>
  800549:	89 c6                	mov    %eax,%esi
  80054b:	c7 04 24 b4 0d 81 00 	movl   $0x810db4,(%esp)
  800552:	e8 4f 73 00 00       	call   8078a6 <inet_addr>
  800557:	89 c3                	mov    %eax,%ebx
  800559:	c7 04 24 c2 0d 81 00 	movl   $0x810dc2,(%esp)
  800560:	e8 41 73 00 00       	call   8078a6 <inet_addr>
  800565:	83 c4 0c             	add    $0xc,%esp
  800568:	56                   	push   %esi
  800569:	53                   	push   %ebx
  80056a:	50                   	push   %eax
  80056b:	e8 10 fd ff ff       	call   800280 <serve_init>
		   inet_addr(MASK),
		   inet_addr(DEFAULT));
	serve();
  800570:	e8 6c fe ff ff       	call   8003e1 <serve>

00800575 <umain>:
}

void
umain(int argc, char **argv)
{
  800575:	55                   	push   %ebp
  800576:	89 e5                	mov    %esp,%ebp
  800578:	53                   	push   %ebx
  800579:	83 ec 04             	sub    $0x4,%esp
	envid_t ns_envid = sys_getenvid();
  80057c:	e8 c8 e9 00 00       	call   80ef49 <sys_getenvid>
  800581:	89 c3                	mov    %eax,%ebx

	binaryname = "ns";
  800583:	c7 05 e8 42 81 00 3b 	movl   $0x81373b,0x8142e8
  80058a:	37 81 00 

	// fork off the timer thread which will send us periodic messages
	timer_envid = fork();
  80058d:	e8 45 ed 00 00       	call   80f2d7 <fork>
  800592:	a3 50 50 81 00       	mov    %eax,0x815050
	if (timer_envid < 0)
  800597:	85 c0                	test   %eax,%eax
  800599:	78 43                	js     8005de <umain+0x69>
		panic("error forking");
	else if (timer_envid == 0) {
  80059b:	74 58                	je     8005f5 <umain+0x80>
		return;
	}

	// fork off the input thread which will poll the NIC driver for input
	// packets
	input_envid = fork();
  80059d:	e8 35 ed 00 00       	call   80f2d7 <fork>
	if (input_envid < 0)
  8005a2:	85 c0                	test   %eax,%eax
  8005a4:	78 65                	js     80060b <umain+0x96>
		panic("error forking");
	else if (input_envid == 0) {
  8005a6:	74 7a                	je     800622 <umain+0xad>
		return;
	}

	// fork off the output thread that will send the packets to the NIC
	// driver
	output_envid = fork();
  8005a8:	e8 2a ed 00 00       	call   80f2d7 <fork>
  8005ad:	a3 4c 50 81 00       	mov    %eax,0x81504c
	if (output_envid < 0)
  8005b2:	85 c0                	test   %eax,%eax
  8005b4:	78 7a                	js     800630 <umain+0xbb>
		panic("error forking");
	else if (output_envid == 0) {
  8005b6:	0f 84 8b 00 00 00    	je     800647 <umain+0xd2>
		return;
	}

	// lwIP requires a user threading library; start the library and jump
	// into a thread to continue initialization.
	thread_init();
  8005bc:	e8 73 9f 00 00       	call   80a534 <thread_init>
	thread_create(0, "main", tmain, 0);
  8005c1:	6a 00                	push   $0x0
  8005c3:	68 37 05 80 00       	push   $0x800537
  8005c8:	68 da 0d 81 00       	push   $0x810dda
  8005cd:	6a 00                	push   $0x0
  8005cf:	e8 f2 9f 00 00       	call   80a5c6 <thread_create>
	thread_yield();
  8005d4:	e8 10 a1 00 00       	call   80a6e9 <thread_yield>
  8005d9:	83 c4 10             	add    $0x10,%esp
  8005dc:	eb 28                	jmp    800606 <umain+0x91>
		panic("error forking");
  8005de:	83 ec 04             	sub    $0x4,%esp
  8005e1:	68 cc 0d 81 00       	push   $0x810dcc
  8005e6:	68 44 01 00 00       	push   $0x144
  8005eb:	68 35 0d 81 00       	push   $0x810d35
  8005f0:	e8 e1 de 00 00       	call   80e4d6 <_panic>
		timer(ns_envid, TIMER_INTERVAL);
  8005f5:	83 ec 08             	sub    $0x8,%esp
  8005f8:	68 fa 00 00 00       	push   $0xfa
  8005fd:	53                   	push   %ebx
  8005fe:	e8 52 00 00 00       	call   800655 <timer>
		return;
  800603:	83 c4 10             	add    $0x10,%esp
	// never coming here!
}
  800606:	8b 5d fc             	mov    -0x4(%ebp),%ebx
  800609:	c9                   	leave  
  80060a:	c3                   	ret    
		panic("error forking");
  80060b:	83 ec 04             	sub    $0x4,%esp
  80060e:	68 cc 0d 81 00       	push   $0x810dcc
  800613:	68 4e 01 00 00       	push   $0x14e
  800618:	68 35 0d 81 00       	push   $0x810d35
  80061d:	e8 b4 de 00 00       	call   80e4d6 <_panic>
		input(ns_envid);
  800622:	83 ec 0c             	sub    $0xc,%esp
  800625:	53                   	push   %ebx
  800626:	e8 e0 00 00 00       	call   80070b <input>
		return;
  80062b:	83 c4 10             	add    $0x10,%esp
  80062e:	eb d6                	jmp    800606 <umain+0x91>
		panic("error forking");
  800630:	83 ec 04             	sub    $0x4,%esp
  800633:	68 cc 0d 81 00       	push   $0x810dcc
  800638:	68 58 01 00 00       	push   $0x158
  80063d:	68 35 0d 81 00       	push   $0x810d35
  800642:	e8 8f de 00 00       	call   80e4d6 <_panic>
		output(ns_envid);
  800647:	83 ec 0c             	sub    $0xc,%esp
  80064a:	53                   	push   %ebx
  80064b:	e8 2c 01 00 00       	call   80077c <output>
		return;
  800650:	83 c4 10             	add    $0x10,%esp
  800653:	eb b1                	jmp    800606 <umain+0x91>

00800655 <timer>:
#include "ns.h"

void
timer(envid_t ns_envid, uint32_t initial_to) {
  800655:	55                   	push   %ebp
  800656:	89 e5                	mov    %esp,%ebp
  800658:	57                   	push   %edi
  800659:	56                   	push   %esi
  80065a:	53                   	push   %ebx
  80065b:	83 ec 1c             	sub    $0x1c,%esp
  80065e:	8b 75 08             	mov    0x8(%ebp),%esi
	int r;
	uint32_t stop = sys_time_msec() + initial_to;
  800661:	e8 12 eb 00 00       	call   80f178 <sys_time_msec>
  800666:	03 45 0c             	add    0xc(%ebp),%eax
  800669:	89 c3                	mov    %eax,%ebx

	binaryname = "ns_timer";
  80066b:	c7 05 e8 42 81 00 0c 	movl   $0x810e0c,0x8142e8
  800672:	0e 81 00 

		ipc_send(ns_envid, NSREQ_TIMER, 0, 0);

		while (1) {
			uint32_t to, whom;
			to = ipc_recv((int32_t *) &whom, 0, 0);
  800675:	8d 7d e4             	lea    -0x1c(%ebp),%edi
  800678:	eb 33                	jmp    8006ad <timer+0x58>
		if (r < 0)
  80067a:	85 c0                	test   %eax,%eax
  80067c:	78 43                	js     8006c1 <timer+0x6c>
		ipc_send(ns_envid, NSREQ_TIMER, 0, 0);
  80067e:	6a 00                	push   $0x0
  800680:	6a 00                	push   $0x0
  800682:	6a 0c                	push   $0xc
  800684:	56                   	push   %esi
  800685:	e8 34 ee 00 00       	call   80f4be <ipc_send>
  80068a:	83 c4 10             	add    $0x10,%esp
			to = ipc_recv((int32_t *) &whom, 0, 0);
  80068d:	83 ec 04             	sub    $0x4,%esp
  800690:	6a 00                	push   $0x0
  800692:	6a 00                	push   $0x0
  800694:	57                   	push   %edi
  800695:	e8 bd ed 00 00       	call   80f457 <ipc_recv>
  80069a:	89 c3                	mov    %eax,%ebx

			if (whom != ns_envid) {
  80069c:	8b 45 e4             	mov    -0x1c(%ebp),%eax
  80069f:	83 c4 10             	add    $0x10,%esp
  8006a2:	39 f0                	cmp    %esi,%eax
  8006a4:	75 2d                	jne    8006d3 <timer+0x7e>
				cprintf("NS TIMER: timer thread got IPC message from env %x not NS\n", whom);
				continue;
			}

			stop = sys_time_msec() + to;
  8006a6:	e8 cd ea 00 00       	call   80f178 <sys_time_msec>
  8006ab:	01 c3                	add    %eax,%ebx
		while((r = sys_time_msec()) < stop && r >= 0) {
  8006ad:	e8 c6 ea 00 00       	call   80f178 <sys_time_msec>
  8006b2:	85 c0                	test   %eax,%eax
  8006b4:	78 c4                	js     80067a <timer+0x25>
  8006b6:	39 d8                	cmp    %ebx,%eax
  8006b8:	73 c0                	jae    80067a <timer+0x25>
			sys_yield();
  8006ba:	e8 a9 e8 00 00       	call   80ef68 <sys_yield>
  8006bf:	eb ec                	jmp    8006ad <timer+0x58>
			panic("sys_time_msec: %e", r);
  8006c1:	50                   	push   %eax
  8006c2:	68 15 0e 81 00       	push   $0x810e15
  8006c7:	6a 0f                	push   $0xf
  8006c9:	68 27 0e 81 00       	push   $0x810e27
  8006ce:	e8 03 de 00 00       	call   80e4d6 <_panic>
				cprintf("NS TIMER: timer thread got IPC message from env %x not NS\n", whom);
  8006d3:	83 ec 08             	sub    $0x8,%esp
  8006d6:	50                   	push   %eax
  8006d7:	68 34 0e 81 00       	push   $0x810e34
  8006dc:	e8 d0 de 00 00       	call   80e5b1 <cprintf>
				continue;
  8006e1:	83 c4 10             	add    $0x10,%esp
  8006e4:	eb a7                	jmp    80068d <timer+0x38>

008006e6 <sleep>:

extern union Nsipc nsipcbuf;

void
sleep(int msec)
{
  8006e6:	55                   	push   %ebp
  8006e7:	89 e5                	mov    %esp,%ebp
  8006e9:	56                   	push   %esi
  8006ea:	53                   	push   %ebx
  8006eb:	8b 75 08             	mov    0x8(%ebp),%esi
    unsigned now = sys_time_msec();
  8006ee:	e8 85 ea 00 00       	call   80f178 <sys_time_msec>
  8006f3:	89 c3                	mov    %eax,%ebx

    while (msec > sys_time_msec()-now){
  8006f5:	eb 05                	jmp    8006fc <sleep+0x16>
    	sys_yield();
  8006f7:	e8 6c e8 00 00       	call   80ef68 <sys_yield>
    while (msec > sys_time_msec()-now){
  8006fc:	e8 77 ea 00 00       	call   80f178 <sys_time_msec>
  800701:	29 d8                	sub    %ebx,%eax
  800703:	39 f0                	cmp    %esi,%eax
  800705:	72 f0                	jb     8006f7 <sleep+0x11>
    }    
}
  800707:	5b                   	pop    %ebx
  800708:	5e                   	pop    %esi
  800709:	5d                   	pop    %ebp
  80070a:	c3                   	ret    

0080070b <input>:

void
input(envid_t ns_envid)
{
  80070b:	55                   	push   %ebp
  80070c:	89 e5                	mov    %esp,%ebp
  80070e:	57                   	push   %edi
  80070f:	56                   	push   %esi
  800710:	53                   	push   %ebx
  800711:	81 ec 1c 08 00 00    	sub    $0x81c,%esp
  800717:	8b 7d 08             	mov    0x8(%ebp),%edi
	binaryname = "ns_input";
  80071a:	c7 05 e8 42 81 00 6f 	movl   $0x810e6f,0x8142e8
  800721:	0e 81 00 
	// reading from it for a while, so don't immediately receive
	// another packet in to the same physical page.
	size_t len;
	char rev_buf[RX_PACKET_SIZE];
	while(1){
		while ( sys_e1000_recv(rev_buf, &len)  < 0) {
  800724:	8d 75 e4             	lea    -0x1c(%ebp),%esi
  800727:	8d 9d e4 f7 ff ff    	lea    -0x81c(%ebp),%ebx
  80072d:	eb 05                	jmp    800734 <input+0x29>
			sys_yield();//没东西读，就阻塞，切换别的环境。    
  80072f:	e8 34 e8 00 00       	call   80ef68 <sys_yield>
		while ( sys_e1000_recv(rev_buf, &len)  < 0) {
  800734:	83 ec 08             	sub    $0x8,%esp
  800737:	56                   	push   %esi
  800738:	53                   	push   %ebx
  800739:	e8 7a ea 00 00       	call   80f1b8 <sys_e1000_recv>
  80073e:	83 c4 10             	add    $0x10,%esp
  800741:	85 c0                	test   %eax,%eax
  800743:	78 ea                	js     80072f <input+0x24>
		}
		memcpy(nsipcbuf.pkt.jp_data, rev_buf, len);
  800745:	83 ec 04             	sub    $0x4,%esp
  800748:	ff 75 e4             	push   -0x1c(%ebp)
  80074b:	53                   	push   %ebx
  80074c:	68 04 e0 b3 00       	push   $0xb3e004
  800751:	e8 2d e6 00 00       	call   80ed83 <memcpy>
		nsipcbuf.pkt.jp_len = len;
  800756:	8b 45 e4             	mov    -0x1c(%ebp),%eax
  800759:	a3 00 e0 b3 00       	mov    %eax,0xb3e000
		
		ipc_send(ns_envid, NSREQ_INPUT, &nsipcbuf, PTE_P|PTE_U);
  80075e:	6a 05                	push   $0x5
  800760:	68 00 e0 b3 00       	push   $0xb3e000
  800765:	6a 0a                	push   $0xa
  800767:	57                   	push   %edi
  800768:	e8 51 ed 00 00       	call   80f4be <ipc_send>
		
		sleep(30);//停留一段时间，不停留的话，测试不会通过，会丢包。
  80076d:	83 c4 14             	add    $0x14,%esp
  800770:	6a 1e                	push   $0x1e
  800772:	e8 6f ff ff ff       	call   8006e6 <sleep>
		while ( sys_e1000_recv(rev_buf, &len)  < 0) {
  800777:	83 c4 10             	add    $0x10,%esp
  80077a:	eb b8                	jmp    800734 <input+0x29>

0080077c <output>:

extern union Nsipc nsipcbuf;

void
output(envid_t ns_envid)
{
  80077c:	55                   	push   %ebp
  80077d:	89 e5                	mov    %esp,%ebp
  80077f:	56                   	push   %esi
  800780:	53                   	push   %ebx
  800781:	83 ec 10             	sub    $0x10,%esp
  800784:	8b 75 08             	mov    0x8(%ebp),%esi
	binaryname = "ns_output";
  800787:	c7 05 e8 42 81 00 78 	movl   $0x810e78,0x8142e8
  80078e:	0e 81 00 
	// 	- read a packet from the network server
	//	- send the packet to the device driver
	int r, perm;
	envid_t from_env;
	while(1){
		r=ipc_recv( &from_env , &nsipcbuf, NULL);
  800791:	8d 5d f4             	lea    -0xc(%ebp),%ebx
  800794:	eb 1f                	jmp    8007b5 <output+0x39>
		if(r!=NSREQ_OUTPUT || from_env!=ns_envid){
			continue;
		} 
		while( sys_e1000_try_send( nsipcbuf.pkt.jp_data, nsipcbuf.pkt.jp_len ) < 0 ){
			sys_yield();//发送失败，切换进程，让出控制器。
  800796:	e8 cd e7 00 00       	call   80ef68 <sys_yield>
		while( sys_e1000_try_send( nsipcbuf.pkt.jp_data, nsipcbuf.pkt.jp_len ) < 0 ){
  80079b:	83 ec 08             	sub    $0x8,%esp
  80079e:	ff 35 00 e0 b3 00    	push   0xb3e000
  8007a4:	68 04 e0 b3 00       	push   $0xb3e004
  8007a9:	e8 e9 e9 00 00       	call   80f197 <sys_e1000_try_send>
  8007ae:	83 c4 10             	add    $0x10,%esp
  8007b1:	85 c0                	test   %eax,%eax
  8007b3:	78 e1                	js     800796 <output+0x1a>
		r=ipc_recv( &from_env , &nsipcbuf, NULL);
  8007b5:	83 ec 04             	sub    $0x4,%esp
  8007b8:	6a 00                	push   $0x0
  8007ba:	68 00 e0 b3 00       	push   $0xb3e000
  8007bf:	53                   	push   %ebx
  8007c0:	e8 92 ec 00 00       	call   80f457 <ipc_recv>
		if(r!=NSREQ_OUTPUT || from_env!=ns_envid){
  8007c5:	83 c4 10             	add    $0x10,%esp
  8007c8:	83 f8 0b             	cmp    $0xb,%eax
  8007cb:	75 e8                	jne    8007b5 <output+0x39>
  8007cd:	39 75 f4             	cmp    %esi,-0xc(%ebp)
  8007d0:	75 e3                	jne    8007b5 <output+0x39>
  8007d2:	eb c7                	jmp    80079b <output+0x1f>

008007d4 <get_socket>:
static struct lwip_socket *
get_socket(int s)
{
  struct lwip_socket *sock;

  if ((s < 0) || (s >= NUM_SOCKETS)) {
  8007d4:	83 f8 1f             	cmp    $0x1f,%eax
  8007d7:	77 1b                	ja     8007f4 <get_socket+0x20>
    LWIP_DEBUGF(SOCKETS_DEBUG, ("get_socket(%d): invalid\n", s));
    set_errno(EBADF);
    return NULL;
  }

  sock = &sockets[s];
  8007d9:	8d 14 80             	lea    (%eax,%eax,4),%edx
  8007dc:	8d 14 95 a0 50 81 00 	lea    0x8150a0(,%edx,4),%edx

  if (!sock->conn) {
  8007e3:	8d 04 80             	lea    (%eax,%eax,4),%eax
  8007e6:	8b 04 85 a0 50 81 00 	mov    0x8150a0(,%eax,4),%eax
  8007ed:	85 c0                	test   %eax,%eax
  8007ef:	74 14                	je     800805 <get_socket+0x31>
    set_errno(EBADF);
    return NULL;
  }

  return sock;
}
  8007f1:	89 d0                	mov    %edx,%eax
  8007f3:	c3                   	ret    
    set_errno(EBADF);
  8007f4:	c7 05 34 50 81 00 09 	movl   $0x9,0x815034
  8007fb:	00 00 00 
    return NULL;
  8007fe:	ba 00 00 00 00       	mov    $0x0,%edx
  800803:	eb ec                	jmp    8007f1 <get_socket+0x1d>
    set_errno(EBADF);
  800805:	c7 05 34 50 81 00 09 	movl   $0x9,0x815034
  80080c:	00 00 00 
    return NULL;
  80080f:	89 c2                	mov    %eax,%edx
  800811:	eb de                	jmp    8007f1 <get_socket+0x1d>

00800813 <lwip_selscan>:
 * @param exceptset not yet implemented
 * @return number of sockets that had events (read+write)
 */
static int
lwip_selscan(int maxfdp1, fd_set *readset, fd_set *writeset, fd_set *exceptset)
{
  800813:	55                   	push   %ebp
  800814:	89 e5                	mov    %esp,%ebp
  800816:	57                   	push   %edi
  800817:	56                   	push   %esi
  800818:	53                   	push   %ebx
  800819:	83 ec 30             	sub    $0x30,%esp
  80081c:	89 45 d4             	mov    %eax,-0x2c(%ebp)
  80081f:	89 55 d0             	mov    %edx,-0x30(%ebp)
  800822:	89 4d cc             	mov    %ecx,-0x34(%ebp)
  int i, nready = 0;
  fd_set lreadset, lwriteset, lexceptset;
  struct lwip_socket *p_sock;
  
  FD_ZERO(&lreadset);
  800825:	6a 04                	push   $0x4
  800827:	6a 00                	push   $0x0
  800829:	8d 45 e4             	lea    -0x1c(%ebp),%eax
  80082c:	50                   	push   %eax
  80082d:	e8 a9 e4 00 00       	call   80ecdb <memset>
  FD_ZERO(&lwriteset);
  800832:	83 c4 0c             	add    $0xc,%esp
  800835:	6a 04                	push   $0x4
  800837:	6a 00                	push   $0x0
  800839:	8d 45 e0             	lea    -0x20(%ebp),%eax
  80083c:	50                   	push   %eax
  80083d:	e8 99 e4 00 00       	call   80ecdb <memset>
  FD_ZERO(&lexceptset);
  800842:	83 c4 0c             	add    $0xc,%esp
  800845:	6a 04                	push   $0x4
  800847:	6a 00                	push   $0x0
  800849:	8d 45 dc             	lea    -0x24(%ebp),%eax
  80084c:	50                   	push   %eax
  80084d:	e8 89 e4 00 00       	call   80ecdb <memset>
  
  /* Go through each socket in each list to count number of sockets which
  currently match */
  for(i = 0; i < maxfdp1; i++) {
  800852:	83 c4 10             	add    $0x10,%esp
  int i, nready = 0;
  800855:	c7 45 c8 00 00 00 00 	movl   $0x0,-0x38(%ebp)
  for(i = 0; i < maxfdp1; i++) {
  80085c:	bb 00 00 00 00       	mov    $0x0,%ebx
  800861:	eb 20                	jmp    800883 <lwip_selscan+0x70>
    if (FD_ISSET(i, readset)) {
      /* See if netconn of this socket is ready for read */
      p_sock = get_socket(i);
      if (p_sock && (p_sock->lastdata || p_sock->rcvevent)) {
        FD_SET(i, &lreadset);
  800863:	b8 01 00 00 00       	mov    $0x1,%eax
  800868:	89 f9                	mov    %edi,%ecx
  80086a:	d3 e0                	shl    %cl,%eax
  80086c:	08 44 35 e4          	or     %al,-0x1c(%ebp,%esi,1)
        LWIP_DEBUGF(SOCKETS_DEBUG, ("lwip_selscan: fd=%d ready for reading\n", i));
        nready++;
  800870:	83 45 c8 01          	addl   $0x1,-0x38(%ebp)
      }
    }
    if (FD_ISSET(i, writeset)) {
  800874:	8b 45 cc             	mov    -0x34(%ebp),%eax
  800877:	0f b6 04 30          	movzbl (%eax,%esi,1),%eax
  80087b:	0f a3 f8             	bt     %edi,%eax
  80087e:	72 3e                	jb     8008be <lwip_selscan+0xab>
  for(i = 0; i < maxfdp1; i++) {
  800880:	83 c3 01             	add    $0x1,%ebx
  800883:	3b 5d d4             	cmp    -0x2c(%ebp),%ebx
  800886:	7d 5b                	jge    8008e3 <lwip_selscan+0xd0>
    if (FD_ISSET(i, readset)) {
  800888:	8d 73 07             	lea    0x7(%ebx),%esi
  80088b:	85 db                	test   %ebx,%ebx
  80088d:	0f 49 f3             	cmovns %ebx,%esi
  800890:	c1 fe 03             	sar    $0x3,%esi
  800893:	89 df                	mov    %ebx,%edi
  800895:	83 e7 07             	and    $0x7,%edi
  800898:	8b 45 d0             	mov    -0x30(%ebp),%eax
  80089b:	0f b6 04 30          	movzbl (%eax,%esi,1),%eax
  80089f:	0f a3 f8             	bt     %edi,%eax
  8008a2:	73 d0                	jae    800874 <lwip_selscan+0x61>
      p_sock = get_socket(i);
  8008a4:	89 d8                	mov    %ebx,%eax
  8008a6:	e8 29 ff ff ff       	call   8007d4 <get_socket>
      if (p_sock && (p_sock->lastdata || p_sock->rcvevent)) {
  8008ab:	85 c0                	test   %eax,%eax
  8008ad:	74 c5                	je     800874 <lwip_selscan+0x61>
  8008af:	83 78 04 00          	cmpl   $0x0,0x4(%eax)
  8008b3:	75 ae                	jne    800863 <lwip_selscan+0x50>
  8008b5:	66 83 78 0a 00       	cmpw   $0x0,0xa(%eax)
  8008ba:	74 b8                	je     800874 <lwip_selscan+0x61>
  8008bc:	eb a5                	jmp    800863 <lwip_selscan+0x50>
      /* See if netconn of this socket is ready for write */
      p_sock = get_socket(i);
  8008be:	89 d8                	mov    %ebx,%eax
  8008c0:	e8 0f ff ff ff       	call   8007d4 <get_socket>
      if (p_sock && p_sock->sendevent) {
  8008c5:	85 c0                	test   %eax,%eax
  8008c7:	74 b7                	je     800880 <lwip_selscan+0x6d>
  8008c9:	66 83 78 0c 00       	cmpw   $0x0,0xc(%eax)
  8008ce:	74 b0                	je     800880 <lwip_selscan+0x6d>
        FD_SET(i, &lwriteset);
  8008d0:	b8 01 00 00 00       	mov    $0x1,%eax
  8008d5:	89 f9                	mov    %edi,%ecx
  8008d7:	d3 e0                	shl    %cl,%eax
  8008d9:	08 44 35 e0          	or     %al,-0x20(%ebp,%esi,1)
        LWIP_DEBUGF(SOCKETS_DEBUG, ("lwip_selscan: fd=%d ready for writing\n", i));
        nready++;
  8008dd:	83 45 c8 01          	addl   $0x1,-0x38(%ebp)
  8008e1:	eb 9d                	jmp    800880 <lwip_selscan+0x6d>
      }
    }
  }
  *readset = lreadset;
  8008e3:	8b 45 e4             	mov    -0x1c(%ebp),%eax
  8008e6:	8b 55 d0             	mov    -0x30(%ebp),%edx
  8008e9:	89 02                	mov    %eax,(%edx)
  *writeset = lwriteset;
  8008eb:	8b 45 e0             	mov    -0x20(%ebp),%eax
  8008ee:	8b 55 cc             	mov    -0x34(%ebp),%edx
  8008f1:	89 02                	mov    %eax,(%edx)
  FD_ZERO(exceptset);
  8008f3:	83 ec 04             	sub    $0x4,%esp
  8008f6:	6a 04                	push   $0x4
  8008f8:	6a 00                	push   $0x0
  8008fa:	ff 75 08             	push   0x8(%ebp)
  8008fd:	e8 d9 e3 00 00       	call   80ecdb <memset>
  
  return nready;
}
  800902:	8b 45 c8             	mov    -0x38(%ebp),%eax
  800905:	8d 65 f4             	lea    -0xc(%ebp),%esp
  800908:	5b                   	pop    %ebx
  800909:	5e                   	pop    %esi
  80090a:	5f                   	pop    %edi
  80090b:	5d                   	pop    %ebp
  80090c:	c3                   	ret    

0080090d <lwip_getaddrname>:
  return lwip_close(s); /* XXX temporary hack until proper implementation */
}

static int
lwip_getaddrname(int s, struct sockaddr *name, socklen_t *namelen, u8_t local)
{
  80090d:	55                   	push   %ebp
  80090e:	89 e5                	mov    %esp,%ebp
  800910:	57                   	push   %edi
  800911:	56                   	push   %esi
  800912:	53                   	push   %ebx
  800913:	83 ec 3c             	sub    $0x3c,%esp
  800916:	89 55 c4             	mov    %edx,-0x3c(%ebp)
  800919:	89 ce                	mov    %ecx,%esi
  80091b:	8b 7d 08             	mov    0x8(%ebp),%edi
  struct lwip_socket *sock;
  struct sockaddr_in sin;
  struct ip_addr naddr;

  sock = get_socket(s);
  80091e:	e8 b1 fe ff ff       	call   8007d4 <get_socket>
  if (!sock)
  800923:	85 c0                	test   %eax,%eax
  800925:	0f 84 86 00 00 00    	je     8009b1 <lwip_getaddrname+0xa4>
  80092b:	89 c3                	mov    %eax,%ebx
    return -1;

  memset(&sin, 0, sizeof(sin));
  80092d:	83 ec 04             	sub    $0x4,%esp
  800930:	6a 10                	push   $0x10
  800932:	6a 00                	push   $0x0
  800934:	8d 45 d8             	lea    -0x28(%ebp),%eax
  800937:	50                   	push   %eax
  800938:	e8 9e e3 00 00       	call   80ecdb <memset>
  sin.sin_len = sizeof(sin);
  80093d:	c6 45 d8 10          	movb   $0x10,-0x28(%ebp)
  sin.sin_family = AF_INET;
  800941:	c6 45 d9 02          	movb   $0x2,-0x27(%ebp)

  /* get the IP address and port */
  netconn_getaddr(sock->conn, &naddr, &sin.sin_port, local);
  800945:	89 f8                	mov    %edi,%eax
  800947:	0f b6 f8             	movzbl %al,%edi
  80094a:	57                   	push   %edi
  80094b:	8d 45 da             	lea    -0x26(%ebp),%eax
  80094e:	50                   	push   %eax
  80094f:	8d 45 d4             	lea    -0x2c(%ebp),%eax
  800952:	50                   	push   %eax
  800953:	ff 33                	push   (%ebx)
  800955:	e8 63 a3 00 00       	call   80acbd <netconn_getaddr>

  LWIP_DEBUGF(SOCKETS_DEBUG, ("lwip_getaddrname(%d, addr=", s));
  //ip_addr_debug_print(SOCKETS_DEBUG, &naddr);
  LWIP_DEBUGF(SOCKETS_DEBUG, (" port=%d)\n", sin.sin_port));

  sin.sin_port = htons(sin.sin_port);
  80095a:	83 c4 14             	add    $0x14,%esp
  80095d:	0f b7 45 da          	movzwl -0x26(%ebp),%eax
  800961:	50                   	push   %eax
  800962:	e8 1f 6d 00 00       	call   807686 <htons>
  800967:	66 89 45 da          	mov    %ax,-0x26(%ebp)
  sin.sin_addr.s_addr = naddr.addr;
  80096b:	8b 45 d4             	mov    -0x2c(%ebp),%eax
  80096e:	89 45 dc             	mov    %eax,-0x24(%ebp)

  if (*namelen > sizeof(sin))
  800971:	83 c4 10             	add    $0x10,%esp
  800974:	83 3e 10             	cmpl   $0x10,(%esi)
  800977:	76 06                	jbe    80097f <lwip_getaddrname+0x72>
    *namelen = sizeof(sin);
  800979:	c7 06 10 00 00 00    	movl   $0x10,(%esi)

  SMEMCPY(name, &sin, *namelen);
  80097f:	83 ec 04             	sub    $0x4,%esp
  800982:	ff 36                	push   (%esi)
  800984:	8d 45 d8             	lea    -0x28(%ebp),%eax
  800987:	50                   	push   %eax
  800988:	ff 75 c4             	push   -0x3c(%ebp)
  80098b:	e8 f3 e3 00 00       	call   80ed83 <memcpy>
  sock_set_errno(sock, 0);
  800990:	c7 43 10 00 00 00 00 	movl   $0x0,0x10(%ebx)
  800997:	c7 05 34 50 81 00 00 	movl   $0x0,0x815034
  80099e:	00 00 00 
  return 0;
  8009a1:	83 c4 10             	add    $0x10,%esp
  8009a4:	b8 00 00 00 00       	mov    $0x0,%eax
}
  8009a9:	8d 65 f4             	lea    -0xc(%ebp),%esp
  8009ac:	5b                   	pop    %ebx
  8009ad:	5e                   	pop    %esi
  8009ae:	5f                   	pop    %edi
  8009af:	5d                   	pop    %ebp
  8009b0:	c3                   	ret    
    return -1;
  8009b1:	b8 ff ff ff ff       	mov    $0xffffffff,%eax
  8009b6:	eb f1                	jmp    8009a9 <lwip_getaddrname+0x9c>

008009b8 <event_callback>:
{
  8009b8:	55                   	push   %ebp
  8009b9:	89 e5                	mov    %esp,%ebp
  8009bb:	57                   	push   %edi
  8009bc:	56                   	push   %esi
  8009bd:	53                   	push   %ebx
  8009be:	83 ec 1c             	sub    $0x1c,%esp
  8009c1:	8b 7d 08             	mov    0x8(%ebp),%edi
  8009c4:	8b 75 0c             	mov    0xc(%ebp),%esi
  if (conn) {
  8009c7:	85 ff                	test   %edi,%edi
  8009c9:	0f 84 80 01 00 00    	je     800b4f <event_callback+0x197>
    s = conn->socket;
  8009cf:	8b 5f 1c             	mov    0x1c(%edi),%ebx
    if (s < 0) {
  8009d2:	85 db                	test   %ebx,%ebx
  8009d4:	78 3c                	js     800a12 <event_callback+0x5a>
    sock = get_socket(s);
  8009d6:	89 d8                	mov    %ebx,%eax
  8009d8:	e8 f7 fd ff ff       	call   8007d4 <get_socket>
  8009dd:	89 45 e4             	mov    %eax,-0x1c(%ebp)
    if (!sock) {
  8009e0:	85 c0                	test   %eax,%eax
  8009e2:	0f 84 67 01 00 00    	je     800b4f <event_callback+0x197>
  sys_sem_wait(selectsem);
  8009e8:	83 ec 0c             	sub    $0xc,%esp
  8009eb:	ff 35 80 50 81 00    	push   0x815080
  8009f1:	e8 12 47 00 00       	call   805108 <sys_sem_wait>
  switch (evt) {
  8009f6:	83 c4 10             	add    $0x10,%esp
  8009f9:	83 fe 02             	cmp    $0x2,%esi
  8009fc:	0f 84 a0 00 00 00    	je     800aa2 <event_callback+0xea>
  800a02:	77 59                	ja     800a5d <event_callback+0xa5>
  800a04:	85 f6                	test   %esi,%esi
  800a06:	74 65                	je     800a6d <event_callback+0xb5>
      sock->rcvevent--;
  800a08:	8b 45 e4             	mov    -0x1c(%ebp),%eax
  800a0b:	66 83 68 0a 01       	subw   $0x1,0xa(%eax)
      break;
  800a10:	eb 63                	jmp    800a75 <event_callback+0xbd>
      sys_sem_wait(socksem);
  800a12:	83 ec 0c             	sub    $0xc,%esp
  800a15:	ff 35 84 50 81 00    	push   0x815084
  800a1b:	e8 e8 46 00 00       	call   805108 <sys_sem_wait>
      if (conn->socket < 0) {
  800a20:	8b 47 1c             	mov    0x1c(%edi),%eax
  800a23:	83 c4 10             	add    $0x10,%esp
  800a26:	85 c0                	test   %eax,%eax
  800a28:	78 13                	js     800a3d <event_callback+0x85>
      sys_sem_signal(socksem);
  800a2a:	83 ec 0c             	sub    $0xc,%esp
  800a2d:	ff 35 84 50 81 00    	push   0x815084
  800a33:	e8 e9 95 00 00       	call   80a021 <sys_sem_signal>
  800a38:	83 c4 10             	add    $0x10,%esp
  800a3b:	eb 99                	jmp    8009d6 <event_callback+0x1e>
        if (evt == NETCONN_EVT_RCVPLUS) {
  800a3d:	85 f6                	test   %esi,%esi
  800a3f:	75 06                	jne    800a47 <event_callback+0x8f>
          conn->socket--;
  800a41:	83 e8 01             	sub    $0x1,%eax
  800a44:	89 47 1c             	mov    %eax,0x1c(%edi)
        sys_sem_signal(socksem);
  800a47:	83 ec 0c             	sub    $0xc,%esp
  800a4a:	ff 35 84 50 81 00    	push   0x815084
  800a50:	e8 cc 95 00 00       	call   80a021 <sys_sem_signal>
        return;
  800a55:	83 c4 10             	add    $0x10,%esp
  800a58:	e9 f2 00 00 00       	jmp    800b4f <event_callback+0x197>
  switch (evt) {
  800a5d:	83 fe 03             	cmp    $0x3,%esi
  800a60:	75 4b                	jne    800aad <event_callback+0xf5>
      sock->sendevent = 0;
  800a62:	8b 45 e4             	mov    -0x1c(%ebp),%eax
  800a65:	66 c7 40 0c 00 00    	movw   $0x0,0xc(%eax)
      break;
  800a6b:	eb 08                	jmp    800a75 <event_callback+0xbd>
      sock->rcvevent++;
  800a6d:	8b 45 e4             	mov    -0x1c(%ebp),%eax
  800a70:	66 83 40 0a 01       	addw   $0x1,0xa(%eax)
  sys_sem_signal(selectsem);
  800a75:	83 ec 0c             	sub    $0xc,%esp
  800a78:	ff 35 80 50 81 00    	push   0x815080
  800a7e:	e8 9e 95 00 00       	call   80a021 <sys_sem_signal>
        if (scb->readset && FD_ISSET(s, scb->readset))
  800a83:	8d 73 07             	lea    0x7(%ebx),%esi
  800a86:	83 c4 10             	add    $0x10,%esp
  800a89:	85 db                	test   %ebx,%ebx
  800a8b:	0f 49 f3             	cmovns %ebx,%esi
  800a8e:	c1 fe 03             	sar    $0x3,%esi
  800a91:	89 d9                	mov    %ebx,%ecx
  800a93:	83 e1 07             	and    $0x7,%ecx
  800a96:	bf 01 00 00 00       	mov    $0x1,%edi
  800a9b:	d3 e7                	shl    %cl,%edi
  800a9d:	e9 83 00 00 00       	jmp    800b25 <event_callback+0x16d>
      sock->sendevent = 1;
  800aa2:	8b 45 e4             	mov    -0x1c(%ebp),%eax
  800aa5:	66 c7 40 0c 01 00    	movw   $0x1,0xc(%eax)
      break;
  800aab:	eb c8                	jmp    800a75 <event_callback+0xbd>
      LWIP_ASSERT("unknown event", 0);
  800aad:	83 ec 04             	sub    $0x4,%esp
  800ab0:	68 82 0e 81 00       	push   $0x810e82
  800ab5:	68 17 04 00 00       	push   $0x417
  800aba:	68 90 0e 81 00       	push   $0x810e90
  800abf:	e8 12 da 00 00       	call   80e4d6 <_panic>
    for (scb = select_cb_list; scb; scb = scb->next) {
  800ac4:	8b 1b                	mov    (%ebx),%ebx
  800ac6:	85 db                	test   %ebx,%ebx
  800ac8:	74 74                	je     800b3e <event_callback+0x186>
      if (scb->sem_signalled == 0) {
  800aca:	83 7b 10 00          	cmpl   $0x0,0x10(%ebx)
  800ace:	75 f4                	jne    800ac4 <event_callback+0x10c>
        if (scb->readset && FD_ISSET(s, scb->readset))
  800ad0:	8b 43 04             	mov    0x4(%ebx),%eax
  800ad3:	85 c0                	test   %eax,%eax
  800ad5:	74 12                	je     800ae9 <event_callback+0x131>
  800ad7:	0f b6 04 30          	movzbl (%eax,%esi,1),%eax
  800adb:	85 f8                	test   %edi,%eax
  800add:	74 0a                	je     800ae9 <event_callback+0x131>
          if (sock->rcvevent)
  800adf:	8b 45 e4             	mov    -0x1c(%ebp),%eax
  800ae2:	66 83 78 0a 00       	cmpw   $0x0,0xa(%eax)
  800ae7:	75 19                	jne    800b02 <event_callback+0x14a>
        if (scb->writeset && FD_ISSET(s, scb->writeset))
  800ae9:	8b 43 08             	mov    0x8(%ebx),%eax
  800aec:	85 c0                	test   %eax,%eax
  800aee:	74 d4                	je     800ac4 <event_callback+0x10c>
  800af0:	0f b6 04 30          	movzbl (%eax,%esi,1),%eax
  800af4:	85 f8                	test   %edi,%eax
  800af6:	74 cc                	je     800ac4 <event_callback+0x10c>
          if (sock->sendevent)
  800af8:	8b 45 e4             	mov    -0x1c(%ebp),%eax
  800afb:	66 83 78 0c 00       	cmpw   $0x0,0xc(%eax)
  800b00:	74 c2                	je     800ac4 <event_callback+0x10c>
      scb->sem_signalled = 1;
  800b02:	c7 43 10 01 00 00 00 	movl   $0x1,0x10(%ebx)
      sys_sem_signal(selectsem);
  800b09:	83 ec 0c             	sub    $0xc,%esp
  800b0c:	ff 35 80 50 81 00    	push   0x815080
  800b12:	e8 0a 95 00 00       	call   80a021 <sys_sem_signal>
      sys_sem_signal(scb->sem);
  800b17:	83 c4 04             	add    $0x4,%esp
  800b1a:	ff 73 14             	push   0x14(%ebx)
  800b1d:	e8 ff 94 00 00       	call   80a021 <sys_sem_signal>
    sys_sem_wait(selectsem);
  800b22:	83 c4 10             	add    $0x10,%esp
  800b25:	83 ec 0c             	sub    $0xc,%esp
  800b28:	ff 35 80 50 81 00    	push   0x815080
  800b2e:	e8 d5 45 00 00       	call   805108 <sys_sem_wait>
    for (scb = select_cb_list; scb; scb = scb->next) {
  800b33:	8b 1d 88 50 81 00    	mov    0x815088,%ebx
  800b39:	83 c4 10             	add    $0x10,%esp
  800b3c:	eb 88                	jmp    800ac6 <event_callback+0x10e>
      sys_sem_signal(selectsem);
  800b3e:	83 ec 0c             	sub    $0xc,%esp
  800b41:	ff 35 80 50 81 00    	push   0x815080
  800b47:	e8 d5 94 00 00       	call   80a021 <sys_sem_signal>
      break;
  800b4c:	83 c4 10             	add    $0x10,%esp
}
  800b4f:	8d 65 f4             	lea    -0xc(%ebp),%esp
  800b52:	5b                   	pop    %ebx
  800b53:	5e                   	pop    %esi
  800b54:	5f                   	pop    %edi
  800b55:	5d                   	pop    %ebp
  800b56:	c3                   	ret    

00800b57 <alloc_socket>:
{
  800b57:	55                   	push   %ebp
  800b58:	89 e5                	mov    %esp,%ebp
  800b5a:	56                   	push   %esi
  800b5b:	53                   	push   %ebx
  800b5c:	89 c6                	mov    %eax,%esi
  sys_sem_wait(socksem);
  800b5e:	83 ec 0c             	sub    $0xc,%esp
  800b61:	ff 35 84 50 81 00    	push   0x815084
  800b67:	e8 9c 45 00 00       	call   805108 <sys_sem_wait>
  800b6c:	b8 a0 50 81 00       	mov    $0x8150a0,%eax
  800b71:	83 c4 10             	add    $0x10,%esp
  for (i = 0; i < NUM_SOCKETS; ++i) {
  800b74:	bb 00 00 00 00       	mov    $0x0,%ebx
    if (!sockets[i].conn) {
  800b79:	83 38 00             	cmpl   $0x0,(%eax)
  800b7c:	74 23                	je     800ba1 <alloc_socket+0x4a>
  for (i = 0; i < NUM_SOCKETS; ++i) {
  800b7e:	83 c3 01             	add    $0x1,%ebx
  800b81:	83 c0 14             	add    $0x14,%eax
  800b84:	83 fb 20             	cmp    $0x20,%ebx
  800b87:	75 f0                	jne    800b79 <alloc_socket+0x22>
  sys_sem_signal(socksem);
  800b89:	83 ec 0c             	sub    $0xc,%esp
  800b8c:	ff 35 84 50 81 00    	push   0x815084
  800b92:	e8 8a 94 00 00       	call   80a021 <sys_sem_signal>
  return -1;
  800b97:	83 c4 10             	add    $0x10,%esp
  800b9a:	bb ff ff ff ff       	mov    $0xffffffff,%ebx
  800b9f:	eb 55                	jmp    800bf6 <alloc_socket+0x9f>
      sockets[i].conn       = newconn;
  800ba1:	8d 14 9b             	lea    (%ebx,%ebx,4),%edx
  800ba4:	c1 e2 02             	shl    $0x2,%edx
  800ba7:	89 b2 a0 50 81 00    	mov    %esi,0x8150a0(%edx)
      sockets[i].lastdata   = NULL;
  800bad:	c7 82 a4 50 81 00 00 	movl   $0x0,0x8150a4(%edx)
  800bb4:	00 00 00 
      sockets[i].lastoffset = 0;
  800bb7:	66 c7 82 a8 50 81 00 	movw   $0x0,0x8150a8(%edx)
  800bbe:	00 00 
      sockets[i].rcvevent   = 0;
  800bc0:	66 c7 82 aa 50 81 00 	movw   $0x0,0x8150aa(%edx)
  800bc7:	00 00 
      sockets[i].sendevent  = 1; /* TCP send buf is empty */
  800bc9:	66 c7 82 ac 50 81 00 	movw   $0x1,0x8150ac(%edx)
  800bd0:	01 00 
      sockets[i].flags      = 0;
  800bd2:	66 c7 82 ae 50 81 00 	movw   $0x0,0x8150ae(%edx)
  800bd9:	00 00 
      sockets[i].err        = 0;
  800bdb:	c7 82 b0 50 81 00 00 	movl   $0x0,0x8150b0(%edx)
  800be2:	00 00 00 
      sys_sem_signal(socksem);
  800be5:	83 ec 0c             	sub    $0xc,%esp
  800be8:	ff 35 84 50 81 00    	push   0x815084
  800bee:	e8 2e 94 00 00       	call   80a021 <sys_sem_signal>
      return i;
  800bf3:	83 c4 10             	add    $0x10,%esp
}
  800bf6:	89 d8                	mov    %ebx,%eax
  800bf8:	8d 65 f8             	lea    -0x8(%ebp),%esp
  800bfb:	5b                   	pop    %ebx
  800bfc:	5e                   	pop    %esi
  800bfd:	5d                   	pop    %ebp
  800bfe:	c3                   	ret    

00800bff <lwip_getsockopt_internal>:
  return err ? -1 : 0;
}

static void
lwip_getsockopt_internal(void *arg)
{
  800bff:	55                   	push   %ebp
  800c00:	89 e5                	mov    %esp,%ebp
  800c02:	56                   	push   %esi
  800c03:	53                   	push   %ebx
  800c04:	8b 45 08             	mov    0x8(%ebp),%eax
#endif /* LWIP_DEBUG */
  int level, optname;
  void *optval;
  struct lwip_setgetsockopt_data *data;

  LWIP_ASSERT("arg != NULL", arg != NULL);
  800c07:	85 c0                	test   %eax,%eax
  800c09:	74 3b                	je     800c46 <lwip_getsockopt_internal+0x47>

  data = (struct lwip_setgetsockopt_data*)arg;
  sock = data->sock;
  800c0b:	8b 18                	mov    (%eax),%ebx
#ifdef LWIP_DEBUG
  s = data->s;
#endif /* LWIP_DEBUG */
  level = data->level;
  800c0d:	8b 50 08             	mov    0x8(%eax),%edx
  optname = data->optname;
  800c10:	8b 48 0c             	mov    0xc(%eax),%ecx
  optval = data->optval;
  800c13:	8b 40 10             	mov    0x10(%eax),%eax

  switch (level) {
  800c16:	83 fa 06             	cmp    $0x6,%edx
  800c19:	0f 84 32 01 00 00    	je     800d51 <lwip_getsockopt_internal+0x152>
  800c1f:	81 fa ff 0f 00 00    	cmp    $0xfff,%edx
  800c25:	74 36                	je     800c5d <lwip_getsockopt_internal+0x5e>
  800c27:	85 d2                	test   %edx,%edx
  800c29:	0f 84 f4 00 00 00    	je     800d23 <lwip_getsockopt_internal+0x124>
      break;
    }  /* switch (optname) */
    break;
#endif /* LWIP_UDP */
  } /* switch (level) */
  sys_sem_signal(sock->conn->op_completed);
  800c2f:	83 ec 0c             	sub    $0xc,%esp
  800c32:	8b 03                	mov    (%ebx),%eax
  800c34:	ff 70 10             	push   0x10(%eax)
  800c37:	e8 e5 93 00 00       	call   80a021 <sys_sem_signal>
}
  800c3c:	83 c4 10             	add    $0x10,%esp
  800c3f:	8d 65 f8             	lea    -0x8(%ebp),%esp
  800c42:	5b                   	pop    %ebx
  800c43:	5e                   	pop    %esi
  800c44:	5d                   	pop    %ebp
  800c45:	c3                   	ret    
  LWIP_ASSERT("arg != NULL", arg != NULL);
  800c46:	83 ec 04             	sub    $0x4,%esp
  800c49:	68 a7 0e 81 00       	push   $0x810ea7
  800c4e:	68 38 05 00 00       	push   $0x538
  800c53:	68 90 0e 81 00       	push   $0x810e90
  800c58:	e8 79 d8 00 00       	call   80e4d6 <_panic>
  800c5d:	81 f9 07 10 00 00    	cmp    $0x1007,%ecx
  800c63:	0f 84 81 00 00 00    	je     800cea <lwip_getsockopt_internal+0xeb>
  800c69:	7e 20                	jle    800c8b <lwip_getsockopt_internal+0x8c>
  800c6b:	81 f9 08 10 00 00    	cmp    $0x1008,%ecx
  800c71:	74 39                	je     800cac <lwip_getsockopt_internal+0xad>
  800c73:	81 f9 0a 10 00 00    	cmp    $0x100a,%ecx
  800c79:	75 b4                	jne    800c2f <lwip_getsockopt_internal+0x30>
      *(int*)optval = (udp_flags(sock->conn->pcb.udp) & UDP_FLAGS_NOCHKSUM) ? 1 : 0;
  800c7b:	8b 13                	mov    (%ebx),%edx
  800c7d:	8b 52 08             	mov    0x8(%edx),%edx
  800c80:	0f b6 52 10          	movzbl 0x10(%edx),%edx
  800c84:	83 e2 01             	and    $0x1,%edx
  800c87:	89 10                	mov    %edx,(%eax)
      break;
  800c89:	eb a4                	jmp    800c2f <lwip_getsockopt_internal+0x30>
  800c8b:	8d 51 fe             	lea    -0x2(%ecx),%edx
  800c8e:	83 fa 1e             	cmp    $0x1e,%edx
  800c91:	77 9c                	ja     800c2f <lwip_getsockopt_internal+0x30>
  800c93:	be 41 00 00 40       	mov    $0x40000041,%esi
  800c98:	0f a3 d6             	bt     %edx,%esi
  800c9b:	73 92                	jae    800c2f <lwip_getsockopt_internal+0x30>
      *(int*)optval = sock->conn->pcb.ip->so_options & optname;
  800c9d:	8b 13                	mov    (%ebx),%edx
  800c9f:	8b 52 08             	mov    0x8(%edx),%edx
  800ca2:	0f b7 52 08          	movzwl 0x8(%edx),%edx
  800ca6:	21 ca                	and    %ecx,%edx
  800ca8:	89 10                	mov    %edx,(%eax)
      break;
  800caa:	eb 83                	jmp    800c2f <lwip_getsockopt_internal+0x30>
      switch (NETCONNTYPE_GROUP(sock->conn->type)) {
  800cac:	8b 13                	mov    (%ebx),%edx
  800cae:	8b 12                	mov    (%edx),%edx
  800cb0:	89 d1                	mov    %edx,%ecx
  800cb2:	81 e1 f0 00 00 00    	and    $0xf0,%ecx
  800cb8:	83 f9 20             	cmp    $0x20,%ecx
  800cbb:	74 22                	je     800cdf <lwip_getsockopt_internal+0xe0>
  800cbd:	83 f9 40             	cmp    $0x40,%ecx
  800cc0:	74 12                	je     800cd4 <lwip_getsockopt_internal+0xd5>
        *(int*)optval = sock->conn->type;
  800cc2:	83 f9 10             	cmp    $0x10,%ecx
  800cc5:	b9 01 00 00 00       	mov    $0x1,%ecx
  800cca:	0f 44 d1             	cmove  %ecx,%edx
  800ccd:	89 10                	mov    %edx,(%eax)
  800ccf:	e9 5b ff ff ff       	jmp    800c2f <lwip_getsockopt_internal+0x30>
        *(int*)optval = SOCK_RAW;
  800cd4:	c7 00 03 00 00 00    	movl   $0x3,(%eax)
        break;
  800cda:	e9 50 ff ff ff       	jmp    800c2f <lwip_getsockopt_internal+0x30>
        *(int*)optval = SOCK_DGRAM;
  800cdf:	c7 00 02 00 00 00    	movl   $0x2,(%eax)
        break;
  800ce5:	e9 45 ff ff ff       	jmp    800c2f <lwip_getsockopt_internal+0x30>
      if (sock->err == 0) {
  800cea:	83 7b 10 00          	cmpl   $0x0,0x10(%ebx)
  800cee:	75 22                	jne    800d12 <lwip_getsockopt_internal+0x113>
        sock_set_errno(sock, err_to_errno(sock->conn->err));
  800cf0:	8b 13                	mov    (%ebx),%edx
  800cf2:	0f be 52 0c          	movsbl 0xc(%edx),%edx
  800cf6:	f7 da                	neg    %edx
  800cf8:	b9 05 00 00 00       	mov    $0x5,%ecx
  800cfd:	83 fa 0e             	cmp    $0xe,%edx
  800d00:	77 07                	ja     800d09 <lwip_getsockopt_internal+0x10a>
  800d02:	8b 0c 95 60 0f 81 00 	mov    0x810f60(,%edx,4),%ecx
  800d09:	89 4b 10             	mov    %ecx,0x10(%ebx)
  800d0c:	89 0d 34 50 81 00    	mov    %ecx,0x815034
      *(int *)optval = sock->err;
  800d12:	8b 53 10             	mov    0x10(%ebx),%edx
  800d15:	89 10                	mov    %edx,(%eax)
      sock->err = 0;
  800d17:	c7 43 10 00 00 00 00 	movl   $0x0,0x10(%ebx)
      break;
  800d1e:	e9 0c ff ff ff       	jmp    800c2f <lwip_getsockopt_internal+0x30>
  800d23:	83 f9 01             	cmp    $0x1,%ecx
  800d26:	74 19                	je     800d41 <lwip_getsockopt_internal+0x142>
  800d28:	83 f9 02             	cmp    $0x2,%ecx
  800d2b:	0f 85 fe fe ff ff    	jne    800c2f <lwip_getsockopt_internal+0x30>
      *(int*)optval = sock->conn->pcb.ip->ttl;
  800d31:	8b 13                	mov    (%ebx),%edx
  800d33:	8b 52 08             	mov    0x8(%edx),%edx
  800d36:	0f b6 52 0b          	movzbl 0xb(%edx),%edx
  800d3a:	89 10                	mov    %edx,(%eax)
      break;
  800d3c:	e9 ee fe ff ff       	jmp    800c2f <lwip_getsockopt_internal+0x30>
      *(int*)optval = sock->conn->pcb.ip->tos;
  800d41:	8b 13                	mov    (%ebx),%edx
  800d43:	8b 52 08             	mov    0x8(%edx),%edx
  800d46:	0f b6 52 0a          	movzbl 0xa(%edx),%edx
  800d4a:	89 10                	mov    %edx,(%eax)
      break;
  800d4c:	e9 de fe ff ff       	jmp    800c2f <lwip_getsockopt_internal+0x30>
  800d51:	83 f9 01             	cmp    $0x1,%ecx
  800d54:	74 1b                	je     800d71 <lwip_getsockopt_internal+0x172>
  800d56:	83 f9 02             	cmp    $0x2,%ecx
  800d59:	0f 85 d0 fe ff ff    	jne    800c2f <lwip_getsockopt_internal+0x30>
      *(int*)optval = (int)sock->conn->pcb.tcp->keep_idle;
  800d5f:	8b 13                	mov    (%ebx),%edx
  800d61:	8b 52 08             	mov    0x8(%edx),%edx
  800d64:	8b 92 9c 00 00 00    	mov    0x9c(%edx),%edx
  800d6a:	89 10                	mov    %edx,(%eax)
      break;
  800d6c:	e9 be fe ff ff       	jmp    800c2f <lwip_getsockopt_internal+0x30>
      *(int*)optval = (sock->conn->pcb.tcp->flags & TF_NODELAY);
  800d71:	8b 13                	mov    (%ebx),%edx
  800d73:	8b 52 08             	mov    0x8(%edx),%edx
  800d76:	0f b6 52 20          	movzbl 0x20(%edx),%edx
  800d7a:	83 e2 40             	and    $0x40,%edx
  800d7d:	89 10                	mov    %edx,(%eax)
      break;
  800d7f:	e9 ab fe ff ff       	jmp    800c2f <lwip_getsockopt_internal+0x30>

00800d84 <lwip_setsockopt_internal>:
  return err ? -1 : 0;
}

static void
lwip_setsockopt_internal(void *arg)
{
  800d84:	55                   	push   %ebp
  800d85:	89 e5                	mov    %esp,%ebp
  800d87:	53                   	push   %ebx
  800d88:	83 ec 04             	sub    $0x4,%esp
  800d8b:	8b 45 08             	mov    0x8(%ebp),%eax
#endif /* LWIP_DEBUG */
  int level, optname;
  const void *optval;
  struct lwip_setgetsockopt_data *data;

  LWIP_ASSERT("arg != NULL", arg != NULL);
  800d8e:	85 c0                	test   %eax,%eax
  800d90:	74 35                	je     800dc7 <lwip_setsockopt_internal+0x43>

  data = (struct lwip_setgetsockopt_data*)arg;
  sock = data->sock;
  800d92:	8b 18                	mov    (%eax),%ebx
#ifdef LWIP_DEBUG
  s = data->s;
#endif /* LWIP_DEBUG */
  level = data->level;
  800d94:	8b 50 08             	mov    0x8(%eax),%edx
  optname = data->optname;
  800d97:	8b 48 0c             	mov    0xc(%eax),%ecx
  optval = data->optval;
  800d9a:	8b 40 10             	mov    0x10(%eax),%eax

  switch (level) {
  800d9d:	83 fa 06             	cmp    $0x6,%edx
  800da0:	0f 84 aa 00 00 00    	je     800e50 <lwip_setsockopt_internal+0xcc>
  800da6:	81 fa ff 0f 00 00    	cmp    $0xfff,%edx
  800dac:	74 30                	je     800dde <lwip_setsockopt_internal+0x5a>
  800dae:	85 d2                	test   %edx,%edx
  800db0:	74 76                	je     800e28 <lwip_setsockopt_internal+0xa4>
      break;
    }  /* switch (optname) */
    break;
#endif /* LWIP_UDP */
  }  /* switch (level) */
  sys_sem_signal(sock->conn->op_completed);
  800db2:	83 ec 0c             	sub    $0xc,%esp
  800db5:	8b 03                	mov    (%ebx),%eax
  800db7:	ff 70 10             	push   0x10(%eax)
  800dba:	e8 62 92 00 00       	call   80a021 <sys_sem_signal>
}
  800dbf:	83 c4 10             	add    $0x10,%esp
  800dc2:	8b 5d fc             	mov    -0x4(%ebp),%ebx
  800dc5:	c9                   	leave  
  800dc6:	c3                   	ret    
  LWIP_ASSERT("arg != NULL", arg != NULL);
  800dc7:	83 ec 04             	sub    $0x4,%esp
  800dca:	68 a7 0e 81 00       	push   $0x810ea7
  800dcf:	68 ae 06 00 00       	push   $0x6ae
  800dd4:	68 90 0e 81 00       	push   $0x810e90
  800dd9:	e8 f8 d6 00 00       	call   80e4d6 <_panic>
  800dde:	83 f9 20             	cmp    $0x20,%ecx
  800de1:	74 0d                	je     800df0 <lwip_setsockopt_internal+0x6c>
  800de3:	81 f9 0a 10 00 00    	cmp    $0x100a,%ecx
  800de9:	74 22                	je     800e0d <lwip_setsockopt_internal+0x89>
  800deb:	83 f9 08             	cmp    $0x8,%ecx
  800dee:	75 c2                	jne    800db2 <lwip_setsockopt_internal+0x2e>
      if (*(int*)optval) {
  800df0:	83 38 00             	cmpl   $0x0,(%eax)
  800df3:	74 0b                	je     800e00 <lwip_setsockopt_internal+0x7c>
        sock->conn->pcb.ip->so_options |= optname;
  800df5:	8b 03                	mov    (%ebx),%eax
  800df7:	8b 40 08             	mov    0x8(%eax),%eax
  800dfa:	66 09 48 08          	or     %cx,0x8(%eax)
  800dfe:	eb b2                	jmp    800db2 <lwip_setsockopt_internal+0x2e>
        sock->conn->pcb.ip->so_options &= ~optname;
  800e00:	8b 03                	mov    (%ebx),%eax
  800e02:	8b 40 08             	mov    0x8(%eax),%eax
  800e05:	f7 d1                	not    %ecx
  800e07:	66 21 48 08          	and    %cx,0x8(%eax)
  800e0b:	eb a5                	jmp    800db2 <lwip_setsockopt_internal+0x2e>
      if (*(int*)optval) {
  800e0d:	83 38 00             	cmpl   $0x0,(%eax)
  800e10:	74 0b                	je     800e1d <lwip_setsockopt_internal+0x99>
        udp_setflags(sock->conn->pcb.udp, udp_flags(sock->conn->pcb.udp) | UDP_FLAGS_NOCHKSUM);
  800e12:	8b 03                	mov    (%ebx),%eax
  800e14:	8b 40 08             	mov    0x8(%eax),%eax
  800e17:	80 48 10 01          	orb    $0x1,0x10(%eax)
  800e1b:	eb 95                	jmp    800db2 <lwip_setsockopt_internal+0x2e>
        udp_setflags(sock->conn->pcb.udp, udp_flags(sock->conn->pcb.udp) & ~UDP_FLAGS_NOCHKSUM);
  800e1d:	8b 03                	mov    (%ebx),%eax
  800e1f:	8b 40 08             	mov    0x8(%eax),%eax
  800e22:	80 60 10 fe          	andb   $0xfe,0x10(%eax)
  800e26:	eb 8a                	jmp    800db2 <lwip_setsockopt_internal+0x2e>
  800e28:	83 f9 01             	cmp    $0x1,%ecx
  800e2b:	74 14                	je     800e41 <lwip_setsockopt_internal+0xbd>
  800e2d:	83 f9 02             	cmp    $0x2,%ecx
  800e30:	75 80                	jne    800db2 <lwip_setsockopt_internal+0x2e>
      sock->conn->pcb.ip->ttl = (u8_t)(*(int*)optval);
  800e32:	8b 13                	mov    (%ebx),%edx
  800e34:	8b 52 08             	mov    0x8(%edx),%edx
  800e37:	8b 00                	mov    (%eax),%eax
  800e39:	88 42 0b             	mov    %al,0xb(%edx)
      break;
  800e3c:	e9 71 ff ff ff       	jmp    800db2 <lwip_setsockopt_internal+0x2e>
      sock->conn->pcb.ip->tos = (u8_t)(*(int*)optval);
  800e41:	8b 13                	mov    (%ebx),%edx
  800e43:	8b 52 08             	mov    0x8(%edx),%edx
  800e46:	8b 00                	mov    (%eax),%eax
  800e48:	88 42 0a             	mov    %al,0xa(%edx)
      break;
  800e4b:	e9 62 ff ff ff       	jmp    800db2 <lwip_setsockopt_internal+0x2e>
  800e50:	83 f9 01             	cmp    $0x1,%ecx
  800e53:	74 1b                	je     800e70 <lwip_setsockopt_internal+0xec>
  800e55:	83 f9 02             	cmp    $0x2,%ecx
  800e58:	0f 85 54 ff ff ff    	jne    800db2 <lwip_setsockopt_internal+0x2e>
      sock->conn->pcb.tcp->keep_idle = (u32_t)(*(int*)optval);
  800e5e:	8b 13                	mov    (%ebx),%edx
  800e60:	8b 52 08             	mov    0x8(%edx),%edx
  800e63:	8b 00                	mov    (%eax),%eax
  800e65:	89 82 9c 00 00 00    	mov    %eax,0x9c(%edx)
      break;
  800e6b:	e9 42 ff ff ff       	jmp    800db2 <lwip_setsockopt_internal+0x2e>
      if (*(int*)optval) {
  800e70:	83 38 00             	cmpl   $0x0,(%eax)
  800e73:	74 0e                	je     800e83 <lwip_setsockopt_internal+0xff>
        sock->conn->pcb.tcp->flags |= TF_NODELAY;
  800e75:	8b 03                	mov    (%ebx),%eax
  800e77:	8b 40 08             	mov    0x8(%eax),%eax
  800e7a:	80 48 20 40          	orb    $0x40,0x20(%eax)
  800e7e:	e9 2f ff ff ff       	jmp    800db2 <lwip_setsockopt_internal+0x2e>
        sock->conn->pcb.tcp->flags &= ~TF_NODELAY;
  800e83:	8b 03                	mov    (%ebx),%eax
  800e85:	8b 40 08             	mov    0x8(%eax),%eax
  800e88:	80 60 20 bf          	andb   $0xbf,0x20(%eax)
  800e8c:	e9 21 ff ff ff       	jmp    800db2 <lwip_setsockopt_internal+0x2e>

00800e91 <lwip_socket_init>:
{
  800e91:	55                   	push   %ebp
  800e92:	89 e5                	mov    %esp,%ebp
  800e94:	83 ec 14             	sub    $0x14,%esp
  socksem   = sys_sem_new(1);
  800e97:	6a 01                	push   $0x1
  800e99:	e8 c6 8e 00 00       	call   809d64 <sys_sem_new>
  800e9e:	a3 84 50 81 00       	mov    %eax,0x815084
  selectsem = sys_sem_new(1);
  800ea3:	c7 04 24 01 00 00 00 	movl   $0x1,(%esp)
  800eaa:	e8 b5 8e 00 00       	call   809d64 <sys_sem_new>
  800eaf:	a3 80 50 81 00       	mov    %eax,0x815080
}
  800eb4:	83 c4 10             	add    $0x10,%esp
  800eb7:	c9                   	leave  
  800eb8:	c3                   	ret    

00800eb9 <lwip_accept>:
{
  800eb9:	55                   	push   %ebp
  800eba:	89 e5                	mov    %esp,%ebp
  800ebc:	57                   	push   %edi
  800ebd:	56                   	push   %esi
  800ebe:	53                   	push   %ebx
  800ebf:	83 ec 3c             	sub    $0x3c,%esp
  800ec2:	8b 7d 10             	mov    0x10(%ebp),%edi
  sock = get_socket(s);
  800ec5:	8b 45 08             	mov    0x8(%ebp),%eax
  800ec8:	e8 07 f9 ff ff       	call   8007d4 <get_socket>
  if (!sock)
  800ecd:	85 c0                	test   %eax,%eax
  800ecf:	0f 84 94 01 00 00    	je     801069 <lwip_accept+0x1b0>
  800ed5:	89 c6                	mov    %eax,%esi
  newconn = netconn_accept(sock->conn);
  800ed7:	83 ec 0c             	sub    $0xc,%esp
  800eda:	ff 30                	push   (%eax)
  800edc:	e8 92 9f 00 00       	call   80ae73 <netconn_accept>
  800ee1:	89 c3                	mov    %eax,%ebx
  if (!newconn) {
  800ee3:	83 c4 10             	add    $0x10,%esp
  800ee6:	85 c0                	test   %eax,%eax
  800ee8:	0f 84 e6 00 00 00    	je     800fd4 <lwip_accept+0x11b>
  err = netconn_peer(newconn, &naddr, &port);
  800eee:	6a 00                	push   $0x0
  800ef0:	8d 45 e2             	lea    -0x1e(%ebp),%eax
  800ef3:	50                   	push   %eax
  800ef4:	8d 45 e4             	lea    -0x1c(%ebp),%eax
  800ef7:	50                   	push   %eax
  800ef8:	53                   	push   %ebx
  800ef9:	e8 bf 9d 00 00       	call   80acbd <netconn_getaddr>
  800efe:	88 45 c7             	mov    %al,-0x39(%ebp)
  if (err != ERR_OK) {
  800f01:	83 c4 10             	add    $0x10,%esp
  800f04:	84 c0                	test   %al,%al
  800f06:	0f 85 f1 00 00 00    	jne    800ffd <lwip_accept+0x144>
  memset(&sin, 0, sizeof(sin));
  800f0c:	83 ec 04             	sub    $0x4,%esp
  800f0f:	6a 10                	push   $0x10
  800f11:	6a 00                	push   $0x0
  800f13:	8d 45 d0             	lea    -0x30(%ebp),%eax
  800f16:	50                   	push   %eax
  800f17:	e8 bf dd 00 00       	call   80ecdb <memset>
  sin.sin_len = sizeof(sin);
  800f1c:	c6 45 d0 10          	movb   $0x10,-0x30(%ebp)
  sin.sin_family = AF_INET;
  800f20:	c6 45 d1 02          	movb   $0x2,-0x2f(%ebp)
  sin.sin_port = htons(port);
  800f24:	0f b7 45 e2          	movzwl -0x1e(%ebp),%eax
  800f28:	89 04 24             	mov    %eax,(%esp)
  800f2b:	e8 56 67 00 00       	call   807686 <htons>
  800f30:	66 89 45 d2          	mov    %ax,-0x2e(%ebp)
  sin.sin_addr.s_addr = naddr.addr;
  800f34:	8b 45 e4             	mov    -0x1c(%ebp),%eax
  800f37:	89 45 d4             	mov    %eax,-0x2c(%ebp)
  if (*addrlen > sizeof(sin))
  800f3a:	83 c4 10             	add    $0x10,%esp
  800f3d:	83 3f 10             	cmpl   $0x10,(%edi)
  800f40:	76 06                	jbe    800f48 <lwip_accept+0x8f>
    *addrlen = sizeof(sin);
  800f42:	c7 07 10 00 00 00    	movl   $0x10,(%edi)
  SMEMCPY(addr, &sin, *addrlen);
  800f48:	83 ec 04             	sub    $0x4,%esp
  800f4b:	ff 37                	push   (%edi)
  800f4d:	8d 45 d0             	lea    -0x30(%ebp),%eax
  800f50:	50                   	push   %eax
  800f51:	ff 75 0c             	push   0xc(%ebp)
  800f54:	e8 2a de 00 00       	call   80ed83 <memcpy>
  newsock = alloc_socket(newconn);
  800f59:	89 d8                	mov    %ebx,%eax
  800f5b:	e8 f7 fb ff ff       	call   800b57 <alloc_socket>
  800f60:	89 c7                	mov    %eax,%edi
  if (newsock == -1) {
  800f62:	83 c4 10             	add    $0x10,%esp
  800f65:	83 f8 ff             	cmp    $0xffffffff,%eax
  800f68:	0f 84 c2 00 00 00    	je     801030 <lwip_accept+0x177>
  LWIP_ASSERT("invalid socket index", (newsock >= 0) && (newsock < NUM_SOCKETS));
  800f6e:	83 f8 1f             	cmp    $0x1f,%eax
  800f71:	0f 87 db 00 00 00    	ja     801052 <lwip_accept+0x199>
  newconn->callback = event_callback;
  800f77:	c7 43 2c b8 09 80 00 	movl   $0x8009b8,0x2c(%ebx)
  sys_sem_wait(socksem);
  800f7e:	83 ec 0c             	sub    $0xc,%esp
  800f81:	ff 35 84 50 81 00    	push   0x815084
  800f87:	e8 7c 41 00 00       	call   805108 <sys_sem_wait>
  nsock->rcvevent += -1 - newconn->socket;
  800f8c:	8d 04 bf             	lea    (%edi,%edi,4),%eax
  800f8f:	8d 14 85 a0 50 81 00 	lea    0x8150a0(,%eax,4),%edx
  800f96:	0f b7 42 0a          	movzwl 0xa(%edx),%eax
  800f9a:	66 2b 43 1c          	sub    0x1c(%ebx),%ax
  800f9e:	83 e8 01             	sub    $0x1,%eax
  800fa1:	66 89 42 0a          	mov    %ax,0xa(%edx)
  newconn->socket = newsock;
  800fa5:	89 7b 1c             	mov    %edi,0x1c(%ebx)
  sys_sem_signal(socksem);
  800fa8:	83 c4 04             	add    $0x4,%esp
  800fab:	ff 35 84 50 81 00    	push   0x815084
  800fb1:	e8 6b 90 00 00       	call   80a021 <sys_sem_signal>
  sock_set_errno(sock, 0);
  800fb6:	c7 46 10 00 00 00 00 	movl   $0x0,0x10(%esi)
  800fbd:	c7 05 34 50 81 00 00 	movl   $0x0,0x815034
  800fc4:	00 00 00 
  return newsock;
  800fc7:	83 c4 10             	add    $0x10,%esp
}
  800fca:	89 f8                	mov    %edi,%eax
  800fcc:	8d 65 f4             	lea    -0xc(%ebp),%esp
  800fcf:	5b                   	pop    %ebx
  800fd0:	5e                   	pop    %esi
  800fd1:	5f                   	pop    %edi
  800fd2:	5d                   	pop    %ebp
  800fd3:	c3                   	ret    
    sock_set_errno(sock, err_to_errno(sock->conn->err));
  800fd4:	8b 06                	mov    (%esi),%eax
  800fd6:	0f be 40 0c          	movsbl 0xc(%eax),%eax
  800fda:	f7 d8                	neg    %eax
  800fdc:	ba 05 00 00 00       	mov    $0x5,%edx
  800fe1:	83 f8 0e             	cmp    $0xe,%eax
  800fe4:	77 07                	ja     800fed <lwip_accept+0x134>
  800fe6:	8b 14 85 60 0f 81 00 	mov    0x810f60(,%eax,4),%edx
  800fed:	89 56 10             	mov    %edx,0x10(%esi)
  800ff0:	89 15 34 50 81 00    	mov    %edx,0x815034
    return -1;
  800ff6:	bf ff ff ff ff       	mov    $0xffffffff,%edi
  800ffb:	eb cd                	jmp    800fca <lwip_accept+0x111>
    netconn_delete(newconn);
  800ffd:	83 ec 0c             	sub    $0xc,%esp
  801000:	53                   	push   %ebx
  801001:	e8 4f 9c 00 00       	call   80ac55 <netconn_delete>
    sock_set_errno(sock, err_to_errno(err));
  801006:	0f be 45 c7          	movsbl -0x39(%ebp),%eax
  80100a:	f7 d8                	neg    %eax
  80100c:	83 c4 10             	add    $0x10,%esp
  80100f:	ba 05 00 00 00       	mov    $0x5,%edx
  801014:	83 f8 0e             	cmp    $0xe,%eax
  801017:	77 07                	ja     801020 <lwip_accept+0x167>
  801019:	8b 14 85 60 0f 81 00 	mov    0x810f60(,%eax,4),%edx
  801020:	89 56 10             	mov    %edx,0x10(%esi)
  801023:	89 15 34 50 81 00    	mov    %edx,0x815034
    return -1;
  801029:	bf ff ff ff ff       	mov    $0xffffffff,%edi
  80102e:	eb 9a                	jmp    800fca <lwip_accept+0x111>
    netconn_delete(newconn);
  801030:	83 ec 0c             	sub    $0xc,%esp
  801033:	53                   	push   %ebx
  801034:	e8 1c 9c 00 00       	call   80ac55 <netconn_delete>
    sock_set_errno(sock, ENFILE);
  801039:	c7 46 10 17 00 00 00 	movl   $0x17,0x10(%esi)
  801040:	c7 05 34 50 81 00 17 	movl   $0x17,0x815034
  801047:	00 00 00 
    return -1;
  80104a:	83 c4 10             	add    $0x10,%esp
  80104d:	e9 78 ff ff ff       	jmp    800fca <lwip_accept+0x111>
  LWIP_ASSERT("invalid socket index", (newsock >= 0) && (newsock < NUM_SOCKETS));
  801052:	83 ec 04             	sub    $0x4,%esp
  801055:	68 b3 0e 81 00       	push   $0x810eb3
  80105a:	68 25 01 00 00       	push   $0x125
  80105f:	68 90 0e 81 00       	push   $0x810e90
  801064:	e8 6d d4 00 00       	call   80e4d6 <_panic>
    return -1;
  801069:	bf ff ff ff ff       	mov    $0xffffffff,%edi
  80106e:	e9 57 ff ff ff       	jmp    800fca <lwip_accept+0x111>

00801073 <lwip_bind>:
{
  801073:	55                   	push   %ebp
  801074:	89 e5                	mov    %esp,%ebp
  801076:	56                   	push   %esi
  801077:	53                   	push   %ebx
  801078:	83 ec 10             	sub    $0x10,%esp
  80107b:	8b 75 0c             	mov    0xc(%ebp),%esi
  sock = get_socket(s);
  80107e:	8b 45 08             	mov    0x8(%ebp),%eax
  801081:	e8 4e f7 ff ff       	call   8007d4 <get_socket>
  if (!sock)
  801086:	85 c0                	test   %eax,%eax
  801088:	0f 84 94 00 00 00    	je     801122 <lwip_bind+0xaf>
  80108e:	89 c3                	mov    %eax,%ebx
  LWIP_ERROR("lwip_bind: invalid address", ((namelen == sizeof(struct sockaddr_in)) &&
  801090:	83 7d 10 10          	cmpl   $0x10,0x10(%ebp)
  801094:	75 4f                	jne    8010e5 <lwip_bind+0x72>
  801096:	80 7e 01 02          	cmpb   $0x2,0x1(%esi)
  80109a:	75 49                	jne    8010e5 <lwip_bind+0x72>
  local_addr.addr = ((struct sockaddr_in *)name)->sin_addr.s_addr;
  80109c:	8b 46 04             	mov    0x4(%esi),%eax
  80109f:	89 45 f4             	mov    %eax,-0xc(%ebp)
  err = netconn_bind(sock->conn, &local_addr, ntohs(local_port));
  8010a2:	83 ec 0c             	sub    $0xc,%esp
  8010a5:	0f b7 46 02          	movzwl 0x2(%esi),%eax
  8010a9:	50                   	push   %eax
  8010aa:	e8 e4 65 00 00       	call   807693 <ntohs>
  8010af:	83 c4 0c             	add    $0xc,%esp
  8010b2:	0f b7 c0             	movzwl %ax,%eax
  8010b5:	50                   	push   %eax
  8010b6:	8d 45 f4             	lea    -0xc(%ebp),%eax
  8010b9:	50                   	push   %eax
  8010ba:	ff 33                	push   (%ebx)
  8010bc:	e8 88 9c 00 00       	call   80ad49 <netconn_bind>
  if (err != ERR_OK) {
  8010c1:	83 c4 10             	add    $0x10,%esp
  8010c4:	84 c0                	test   %al,%al
  8010c6:	75 34                	jne    8010fc <lwip_bind+0x89>
  sock_set_errno(sock, 0);
  8010c8:	c7 43 10 00 00 00 00 	movl   $0x0,0x10(%ebx)
  8010cf:	c7 05 34 50 81 00 00 	movl   $0x0,0x815034
  8010d6:	00 00 00 
  return 0;
  8010d9:	b8 00 00 00 00       	mov    $0x0,%eax
}
  8010de:	8d 65 f8             	lea    -0x8(%ebp),%esp
  8010e1:	5b                   	pop    %ebx
  8010e2:	5e                   	pop    %esi
  8010e3:	5d                   	pop    %ebp
  8010e4:	c3                   	ret    
  LWIP_ERROR("lwip_bind: invalid address", ((namelen == sizeof(struct sockaddr_in)) &&
  8010e5:	83 ec 04             	sub    $0x4,%esp
  8010e8:	68 c8 0e 81 00       	push   $0x810ec8
  8010ed:	68 48 01 00 00       	push   $0x148
  8010f2:	68 90 0e 81 00       	push   $0x810e90
  8010f7:	e8 da d3 00 00       	call   80e4d6 <_panic>
    sock_set_errno(sock, err_to_errno(err));
  8010fc:	0f be c0             	movsbl %al,%eax
  8010ff:	f7 d8                	neg    %eax
  801101:	ba 05 00 00 00       	mov    $0x5,%edx
  801106:	83 f8 0e             	cmp    $0xe,%eax
  801109:	77 07                	ja     801112 <lwip_bind+0x9f>
  80110b:	8b 14 85 60 0f 81 00 	mov    0x810f60(,%eax,4),%edx
  801112:	89 53 10             	mov    %edx,0x10(%ebx)
  801115:	89 15 34 50 81 00    	mov    %edx,0x815034
    return -1;
  80111b:	b8 ff ff ff ff       	mov    $0xffffffff,%eax
  801120:	eb bc                	jmp    8010de <lwip_bind+0x6b>
    return -1;
  801122:	b8 ff ff ff ff       	mov    $0xffffffff,%eax
  801127:	eb b5                	jmp    8010de <lwip_bind+0x6b>

00801129 <lwip_close>:
{
  801129:	55                   	push   %ebp
  80112a:	89 e5                	mov    %esp,%ebp
  80112c:	53                   	push   %ebx
  80112d:	83 ec 04             	sub    $0x4,%esp
  sock = get_socket(s);
  801130:	8b 45 08             	mov    0x8(%ebp),%eax
  801133:	e8 9c f6 ff ff       	call   8007d4 <get_socket>
  if (!sock) {
  801138:	85 c0                	test   %eax,%eax
  80113a:	74 6f                	je     8011ab <lwip_close+0x82>
  80113c:	89 c3                	mov    %eax,%ebx
  netconn_delete(sock->conn);
  80113e:	83 ec 0c             	sub    $0xc,%esp
  801141:	ff 30                	push   (%eax)
  801143:	e8 0d 9b 00 00       	call   80ac55 <netconn_delete>
  sys_sem_wait(socksem);
  801148:	83 c4 04             	add    $0x4,%esp
  80114b:	ff 35 84 50 81 00    	push   0x815084
  801151:	e8 b2 3f 00 00       	call   805108 <sys_sem_wait>
  if (sock->lastdata) {
  801156:	8b 43 04             	mov    0x4(%ebx),%eax
  801159:	83 c4 10             	add    $0x10,%esp
  80115c:	85 c0                	test   %eax,%eax
  80115e:	74 0c                	je     80116c <lwip_close+0x43>
    netbuf_delete(sock->lastdata);
  801160:	83 ec 0c             	sub    $0xc,%esp
  801163:	50                   	push   %eax
  801164:	e8 5b 13 00 00       	call   8024c4 <netbuf_delete>
  801169:	83 c4 10             	add    $0x10,%esp
  sock->lastdata   = NULL;
  80116c:	c7 43 04 00 00 00 00 	movl   $0x0,0x4(%ebx)
  sock->lastoffset = 0;
  801173:	66 c7 43 08 00 00    	movw   $0x0,0x8(%ebx)
  sock->conn       = NULL;
  801179:	c7 03 00 00 00 00    	movl   $0x0,(%ebx)
  sock_set_errno(sock, 0);
  80117f:	c7 43 10 00 00 00 00 	movl   $0x0,0x10(%ebx)
  801186:	c7 05 34 50 81 00 00 	movl   $0x0,0x815034
  80118d:	00 00 00 
  sys_sem_signal(socksem);
  801190:	83 ec 0c             	sub    $0xc,%esp
  801193:	ff 35 84 50 81 00    	push   0x815084
  801199:	e8 83 8e 00 00       	call   80a021 <sys_sem_signal>
  return 0;
  80119e:	83 c4 10             	add    $0x10,%esp
  8011a1:	b8 00 00 00 00       	mov    $0x0,%eax
}
  8011a6:	8b 5d fc             	mov    -0x4(%ebp),%ebx
  8011a9:	c9                   	leave  
  8011aa:	c3                   	ret    
    return -1;
  8011ab:	b8 ff ff ff ff       	mov    $0xffffffff,%eax
  8011b0:	eb f4                	jmp    8011a6 <lwip_close+0x7d>

008011b2 <lwip_connect>:
{
  8011b2:	55                   	push   %ebp
  8011b3:	89 e5                	mov    %esp,%ebp
  8011b5:	56                   	push   %esi
  8011b6:	53                   	push   %ebx
  8011b7:	83 ec 10             	sub    $0x10,%esp
  8011ba:	8b 75 0c             	mov    0xc(%ebp),%esi
  sock = get_socket(s);
  8011bd:	8b 45 08             	mov    0x8(%ebp),%eax
  8011c0:	e8 0f f6 ff ff       	call   8007d4 <get_socket>
  if (!sock)
  8011c5:	85 c0                	test   %eax,%eax
  8011c7:	0f 84 94 00 00 00    	je     801261 <lwip_connect+0xaf>
  8011cd:	89 c3                	mov    %eax,%ebx
  LWIP_ERROR("lwip_connect: invalid address", ((namelen == sizeof(struct sockaddr_in)) &&
  8011cf:	83 7d 10 10          	cmpl   $0x10,0x10(%ebp)
  8011d3:	75 4f                	jne    801224 <lwip_connect+0x72>
  8011d5:	80 7e 01 02          	cmpb   $0x2,0x1(%esi)
  8011d9:	75 49                	jne    801224 <lwip_connect+0x72>
    remote_addr.addr = ((struct sockaddr_in *)name)->sin_addr.s_addr;
  8011db:	8b 46 04             	mov    0x4(%esi),%eax
  8011de:	89 45 f4             	mov    %eax,-0xc(%ebp)
    err = netconn_connect(sock->conn, &remote_addr, ntohs(remote_port));
  8011e1:	83 ec 0c             	sub    $0xc,%esp
  8011e4:	0f b7 46 02          	movzwl 0x2(%esi),%eax
  8011e8:	50                   	push   %eax
  8011e9:	e8 a5 64 00 00       	call   807693 <ntohs>
  8011ee:	83 c4 0c             	add    $0xc,%esp
  8011f1:	0f b7 c0             	movzwl %ax,%eax
  8011f4:	50                   	push   %eax
  8011f5:	8d 45 f4             	lea    -0xc(%ebp),%eax
  8011f8:	50                   	push   %eax
  8011f9:	ff 33                	push   (%ebx)
  8011fb:	e8 9a 9b 00 00       	call   80ad9a <netconn_connect>
  if (err != ERR_OK) {
  801200:	83 c4 10             	add    $0x10,%esp
  801203:	84 c0                	test   %al,%al
  801205:	75 34                	jne    80123b <lwip_connect+0x89>
  sock_set_errno(sock, 0);
  801207:	c7 43 10 00 00 00 00 	movl   $0x0,0x10(%ebx)
  80120e:	c7 05 34 50 81 00 00 	movl   $0x0,0x815034
  801215:	00 00 00 
  return 0;
  801218:	b8 00 00 00 00       	mov    $0x0,%eax
}
  80121d:	8d 65 f8             	lea    -0x8(%ebp),%esp
  801220:	5b                   	pop    %ebx
  801221:	5e                   	pop    %esi
  801222:	5d                   	pop    %ebp
  801223:	c3                   	ret    
  LWIP_ERROR("lwip_connect: invalid address", ((namelen == sizeof(struct sockaddr_in)) &&
  801224:	83 ec 04             	sub    $0x4,%esp
  801227:	68 e3 0e 81 00       	push   $0x810ee3
  80122c:	68 84 01 00 00       	push   $0x184
  801231:	68 90 0e 81 00       	push   $0x810e90
  801236:	e8 9b d2 00 00       	call   80e4d6 <_panic>
    sock_set_errno(sock, err_to_errno(err));
  80123b:	0f be c0             	movsbl %al,%eax
  80123e:	f7 d8                	neg    %eax
  801240:	ba 05 00 00 00       	mov    $0x5,%edx
  801245:	83 f8 0e             	cmp    $0xe,%eax
  801248:	77 07                	ja     801251 <lwip_connect+0x9f>
  80124a:	8b 14 85 60 0f 81 00 	mov    0x810f60(,%eax,4),%edx
  801251:	89 53 10             	mov    %edx,0x10(%ebx)
  801254:	89 15 34 50 81 00    	mov    %edx,0x815034
    return -1;
  80125a:	b8 ff ff ff ff       	mov    $0xffffffff,%eax
  80125f:	eb bc                	jmp    80121d <lwip_connect+0x6b>
    return -1;
  801261:	b8 ff ff ff ff       	mov    $0xffffffff,%eax
  801266:	eb b5                	jmp    80121d <lwip_connect+0x6b>

00801268 <lwip_listen>:
{
  801268:	55                   	push   %ebp
  801269:	89 e5                	mov    %esp,%ebp
  80126b:	56                   	push   %esi
  80126c:	53                   	push   %ebx
  80126d:	8b 5d 0c             	mov    0xc(%ebp),%ebx
  sock = get_socket(s);
  801270:	8b 45 08             	mov    0x8(%ebp),%eax
  801273:	e8 5c f5 ff ff       	call   8007d4 <get_socket>
  if (!sock)
  801278:	85 c0                	test   %eax,%eax
  80127a:	74 6b                	je     8012e7 <lwip_listen+0x7f>
  80127c:	89 c6                	mov    %eax,%esi
  err = netconn_listen_with_backlog(sock->conn, backlog);
  80127e:	83 ec 08             	sub    $0x8,%esp
  801281:	b8 ff 00 00 00       	mov    $0xff,%eax
  801286:	39 c3                	cmp    %eax,%ebx
  801288:	0f 4e c3             	cmovle %ebx,%eax
  80128b:	85 c0                	test   %eax,%eax
  80128d:	ba 00 00 00 00       	mov    $0x0,%edx
  801292:	0f 48 c2             	cmovs  %edx,%eax
  801295:	50                   	push   %eax
  801296:	ff 36                	push   (%esi)
  801298:	e8 92 9b 00 00       	call   80ae2f <netconn_listen_with_backlog>
  if (err != ERR_OK) {
  80129d:	83 c4 10             	add    $0x10,%esp
  8012a0:	84 c0                	test   %al,%al
  8012a2:	75 1d                	jne    8012c1 <lwip_listen+0x59>
  sock_set_errno(sock, 0);
  8012a4:	c7 46 10 00 00 00 00 	movl   $0x0,0x10(%esi)
  8012ab:	c7 05 34 50 81 00 00 	movl   $0x0,0x815034
  8012b2:	00 00 00 
  return 0;
  8012b5:	b8 00 00 00 00       	mov    $0x0,%eax
}
  8012ba:	8d 65 f8             	lea    -0x8(%ebp),%esp
  8012bd:	5b                   	pop    %ebx
  8012be:	5e                   	pop    %esi
  8012bf:	5d                   	pop    %ebp
  8012c0:	c3                   	ret    
    sock_set_errno(sock, err_to_errno(err));
  8012c1:	0f be c0             	movsbl %al,%eax
  8012c4:	f7 d8                	neg    %eax
  8012c6:	ba 05 00 00 00       	mov    $0x5,%edx
  8012cb:	83 f8 0e             	cmp    $0xe,%eax
  8012ce:	77 07                	ja     8012d7 <lwip_listen+0x6f>
  8012d0:	8b 14 85 60 0f 81 00 	mov    0x810f60(,%eax,4),%edx
  8012d7:	89 56 10             	mov    %edx,0x10(%esi)
  8012da:	89 15 34 50 81 00    	mov    %edx,0x815034
    return -1;
  8012e0:	b8 ff ff ff ff       	mov    $0xffffffff,%eax
  8012e5:	eb d3                	jmp    8012ba <lwip_listen+0x52>
    return -1;
  8012e7:	b8 ff ff ff ff       	mov    $0xffffffff,%eax
  8012ec:	eb cc                	jmp    8012ba <lwip_listen+0x52>

008012ee <lwip_recvfrom>:
{
  8012ee:	55                   	push   %ebp
  8012ef:	89 e5                	mov    %esp,%ebp
  8012f1:	57                   	push   %edi
  8012f2:	56                   	push   %esi
  8012f3:	53                   	push   %ebx
  8012f4:	83 ec 3c             	sub    $0x3c,%esp
  sock = get_socket(s);
  8012f7:	8b 45 08             	mov    0x8(%ebp),%eax
  8012fa:	e8 d5 f4 ff ff       	call   8007d4 <get_socket>
  if (!sock)
  8012ff:	85 c0                	test   %eax,%eax
  801301:	0f 84 20 02 00 00    	je     801527 <lwip_recvfrom+0x239>
  801307:	89 c7                	mov    %eax,%edi
  u16_t               buflen, copylen, off = 0;
  801309:	66 c7 45 c4 00 00    	movw   $0x0,-0x3c(%ebp)
      if (((flags & MSG_DONTWAIT) || (sock->flags & O_NONBLOCK)) && !sock->rcvevent) {
  80130f:	8b 45 14             	mov    0x14(%ebp),%eax
  801312:	83 e0 08             	and    $0x8,%eax
  801315:	89 45 b8             	mov    %eax,-0x48(%ebp)
  801318:	e9 a7 00 00 00       	jmp    8013c4 <lwip_recvfrom+0xd6>
  80131d:	83 7d b8 00          	cmpl   $0x0,-0x48(%ebp)
  801321:	75 06                	jne    801329 <lwip_recvfrom+0x3b>
  801323:	f6 47 0f 08          	testb  $0x8,0xf(%edi)
  801327:	74 07                	je     801330 <lwip_recvfrom+0x42>
  801329:	66 83 7f 0a 00       	cmpw   $0x0,0xa(%edi)
  80132e:	74 56                	je     801386 <lwip_recvfrom+0x98>
      sock->lastdata = buf = netconn_recv(sock->conn);
  801330:	83 ec 0c             	sub    $0xc,%esp
  801333:	ff 37                	push   (%edi)
  801335:	e8 ab 9b 00 00       	call   80aee5 <netconn_recv>
  80133a:	89 c6                	mov    %eax,%esi
  80133c:	89 47 04             	mov    %eax,0x4(%edi)
      if (!buf) {
  80133f:	83 c4 10             	add    $0x10,%esp
  801342:	85 c0                	test   %eax,%eax
  801344:	0f 85 85 00 00 00    	jne    8013cf <lwip_recvfrom+0xe1>
        sock_set_errno(sock, (((sock->conn->pcb.ip!=NULL) && (sock->conn->err==ERR_OK))?ETIMEDOUT:err_to_errno(sock->conn->err)));
  80134a:	8b 17                	mov    (%edi),%edx
  80134c:	83 7a 08 00          	cmpl   $0x0,0x8(%edx)
  801350:	74 0b                	je     80135d <lwip_recvfrom+0x6f>
  801352:	b8 6e 00 00 00       	mov    $0x6e,%eax
  801357:	80 7a 0c 00          	cmpb   $0x0,0xc(%edx)
  80135b:	74 17                	je     801374 <lwip_recvfrom+0x86>
  80135d:	0f be 52 0c          	movsbl 0xc(%edx),%edx
  801361:	f7 da                	neg    %edx
  801363:	b8 05 00 00 00       	mov    $0x5,%eax
  801368:	83 fa 0e             	cmp    $0xe,%edx
  80136b:	77 07                	ja     801374 <lwip_recvfrom+0x86>
  80136d:	8b 04 95 60 0f 81 00 	mov    0x810f60(,%edx,4),%eax
  801374:	89 47 10             	mov    %eax,0x10(%edi)
  801377:	a3 34 50 81 00       	mov    %eax,0x815034
        return 0;
  80137c:	b8 00 00 00 00       	mov    $0x0,%eax
  801381:	e9 09 01 00 00       	jmp    80148f <lwip_recvfrom+0x1a1>
        sock_set_errno(sock, EWOULDBLOCK);
  801386:	c7 47 10 0b 00 00 00 	movl   $0xb,0x10(%edi)
  80138d:	c7 05 34 50 81 00 0b 	movl   $0xb,0x815034
  801394:	00 00 00 
        return -1;
  801397:	b8 ff ff ff ff       	mov    $0xffffffff,%eax
  80139c:	e9 ee 00 00 00       	jmp    80148f <lwip_recvfrom+0x1a1>
        sock->lastdata = NULL;
  8013a1:	c7 47 04 00 00 00 00 	movl   $0x0,0x4(%edi)
        sock->lastoffset = 0;
  8013a8:	66 c7 47 08 00 00    	movw   $0x0,0x8(%edi)
        netbuf_delete(buf);
  8013ae:	83 ec 0c             	sub    $0xc,%esp
  8013b1:	56                   	push   %esi
  8013b2:	e8 0d 11 00 00       	call   8024c4 <netbuf_delete>
  8013b7:	83 c4 10             	add    $0x10,%esp
  } while (!done);
  8013ba:	80 7d c7 00          	cmpb   $0x0,-0x39(%ebp)
  8013be:	0f 85 aa 00 00 00    	jne    80146e <lwip_recvfrom+0x180>
    if (sock->lastdata) {
  8013c4:	8b 77 04             	mov    0x4(%edi),%esi
  8013c7:	85 f6                	test   %esi,%esi
  8013c9:	0f 84 4e ff ff ff    	je     80131d <lwip_recvfrom+0x2f>
    buflen = netbuf_len(buf);
  8013cf:	8b 16                	mov    (%esi),%edx
  8013d1:	0f b7 4a 08          	movzwl 0x8(%edx),%ecx
    buflen -= sock->lastoffset;
  8013d5:	0f b7 47 08          	movzwl 0x8(%edi),%eax
  8013d9:	89 cb                	mov    %ecx,%ebx
  8013db:	29 c3                	sub    %eax,%ebx
    if (len > buflen) {
  8013dd:	0f b7 db             	movzwl %bx,%ebx
  8013e0:	89 5d bc             	mov    %ebx,-0x44(%ebp)
      copylen = len;
  8013e3:	29 c1                	sub    %eax,%ecx
  8013e5:	3b 5d 10             	cmp    0x10(%ebp),%ebx
  8013e8:	66 0f 4d 4d 10       	cmovge 0x10(%ebp),%cx
  8013ed:	89 cb                	mov    %ecx,%ebx
    netbuf_copy_partial(buf, (u8_t*)mem + off, copylen, sock->lastoffset);
  8013ef:	0f b7 c9             	movzwl %cx,%ecx
  8013f2:	0f b7 c0             	movzwl %ax,%eax
  8013f5:	50                   	push   %eax
  8013f6:	89 4d c0             	mov    %ecx,-0x40(%ebp)
  8013f9:	51                   	push   %ecx
  8013fa:	0f b7 45 c4          	movzwl -0x3c(%ebp),%eax
  8013fe:	03 45 0c             	add    0xc(%ebp),%eax
  801401:	50                   	push   %eax
  801402:	52                   	push   %edx
  801403:	e8 94 3b 00 00       	call   804f9c <pbuf_copy_partial>
    off += copylen;
  801408:	66 01 5d c4          	add    %bx,-0x3c(%ebp)
    if (netconn_type(sock->conn) == NETCONN_TCP) {
  80140c:	83 c4 04             	add    $0x4,%esp
  80140f:	ff 37                	push   (%edi)
  801411:	e8 7f 98 00 00       	call   80ac95 <netconn_type>
  801416:	83 c4 10             	add    $0x10,%esp
      done = 1;
  801419:	c6 45 c7 01          	movb   $0x1,-0x39(%ebp)
    if (netconn_type(sock->conn) == NETCONN_TCP) {
  80141d:	83 f8 10             	cmp    $0x10,%eax
  801420:	75 23                	jne    801445 <lwip_recvfrom+0x157>
      len -= copylen;
  801422:	8b 4d c0             	mov    -0x40(%ebp),%ecx
  801425:	29 4d 10             	sub    %ecx,0x10(%ebp)
      if ( (len <= 0) || (buf->p->flags & PBUF_FLAG_PUSH) || !sock->rcvevent) {
  801428:	83 7d 10 00          	cmpl   $0x0,0x10(%ebp)
  80142c:	7e 17                	jle    801445 <lwip_recvfrom+0x157>
  80142e:	8b 06                	mov    (%esi),%eax
  801430:	0f b6 40 0d          	movzbl 0xd(%eax),%eax
  801434:	83 e0 01             	and    $0x1,%eax
  801437:	88 45 c7             	mov    %al,-0x39(%ebp)
  80143a:	75 09                	jne    801445 <lwip_recvfrom+0x157>
  80143c:	66 83 7f 0a 00       	cmpw   $0x0,0xa(%edi)
  801441:	0f 94 45 c7          	sete   -0x39(%ebp)
    if ((flags & MSG_PEEK)==0) {
  801445:	f6 45 14 01          	testb  $0x1,0x14(%ebp)
  801449:	75 23                	jne    80146e <lwip_recvfrom+0x180>
      if ((sock->conn->type == NETCONN_TCP) && (buflen - copylen > 0)) {
  80144b:	8b 07                	mov    (%edi),%eax
  80144d:	83 38 10             	cmpl   $0x10,(%eax)
  801450:	0f 85 4b ff ff ff    	jne    8013a1 <lwip_recvfrom+0xb3>
  801456:	8b 55 c0             	mov    -0x40(%ebp),%edx
  801459:	39 55 bc             	cmp    %edx,-0x44(%ebp)
  80145c:	0f 8e 3f ff ff ff    	jle    8013a1 <lwip_recvfrom+0xb3>
        sock->lastdata = buf;
  801462:	89 77 04             	mov    %esi,0x4(%edi)
        sock->lastoffset += copylen;
  801465:	66 01 5f 08          	add    %bx,0x8(%edi)
        LWIP_DEBUGF(SOCKETS_DEBUG, ("lwip_recvfrom: lastdata now netbuf=%p\n", (void*)buf));
  801469:	e9 4c ff ff ff       	jmp    8013ba <lwip_recvfrom+0xcc>
  if (from && fromlen) {
  80146e:	83 7d 18 00          	cmpl   $0x0,0x18(%ebp)
  801472:	74 06                	je     80147a <lwip_recvfrom+0x18c>
  801474:	83 7d 1c 00          	cmpl   $0x0,0x1c(%ebp)
  801478:	75 1d                	jne    801497 <lwip_recvfrom+0x1a9>
  sock_set_errno(sock, 0);
  80147a:	c7 47 10 00 00 00 00 	movl   $0x0,0x10(%edi)
  801481:	c7 05 34 50 81 00 00 	movl   $0x0,0x815034
  801488:	00 00 00 
  return off;
  80148b:	0f b7 45 c4          	movzwl -0x3c(%ebp),%eax
}
  80148f:	8d 65 f4             	lea    -0xc(%ebp),%esp
  801492:	5b                   	pop    %ebx
  801493:	5e                   	pop    %esi
  801494:	5f                   	pop    %edi
  801495:	5d                   	pop    %ebp
  801496:	c3                   	ret    
    if (netconn_type(sock->conn) == NETCONN_TCP) {
  801497:	83 ec 0c             	sub    $0xc,%esp
  80149a:	ff 37                	push   (%edi)
  80149c:	e8 f4 97 00 00       	call   80ac95 <netconn_type>
  8014a1:	83 c4 10             	add    $0x10,%esp
  8014a4:	83 f8 10             	cmp    $0x10,%eax
  8014a7:	74 65                	je     80150e <lwip_recvfrom+0x220>
      addr = netbuf_fromaddr(buf);
  8014a9:	8b 5e 08             	mov    0x8(%esi),%ebx
      port = netbuf_fromport(buf);
  8014ac:	0f b7 46 0c          	movzwl 0xc(%esi),%eax
  8014b0:	66 89 45 e6          	mov    %ax,-0x1a(%ebp)
    memset(&sin, 0, sizeof(sin));
  8014b4:	83 ec 04             	sub    $0x4,%esp
  8014b7:	6a 10                	push   $0x10
  8014b9:	6a 00                	push   $0x0
  8014bb:	8d 45 d4             	lea    -0x2c(%ebp),%eax
  8014be:	50                   	push   %eax
  8014bf:	e8 17 d8 00 00       	call   80ecdb <memset>
    sin.sin_len = sizeof(sin);
  8014c4:	c6 45 d4 10          	movb   $0x10,-0x2c(%ebp)
    sin.sin_family = AF_INET;
  8014c8:	c6 45 d5 02          	movb   $0x2,-0x2b(%ebp)
    sin.sin_port = htons(port);
  8014cc:	0f b7 45 e6          	movzwl -0x1a(%ebp),%eax
  8014d0:	89 04 24             	mov    %eax,(%esp)
  8014d3:	e8 ae 61 00 00       	call   807686 <htons>
  8014d8:	66 89 45 d6          	mov    %ax,-0x2a(%ebp)
    sin.sin_addr.s_addr = addr->addr;
  8014dc:	8b 03                	mov    (%ebx),%eax
  8014de:	89 45 d8             	mov    %eax,-0x28(%ebp)
    if (*fromlen > sizeof(sin))
  8014e1:	83 c4 10             	add    $0x10,%esp
  8014e4:	8b 45 1c             	mov    0x1c(%ebp),%eax
  8014e7:	83 38 10             	cmpl   $0x10,(%eax)
  8014ea:	76 06                	jbe    8014f2 <lwip_recvfrom+0x204>
      *fromlen = sizeof(sin);
  8014ec:	c7 00 10 00 00 00    	movl   $0x10,(%eax)
    SMEMCPY(from, &sin, *fromlen);
  8014f2:	83 ec 04             	sub    $0x4,%esp
  8014f5:	8b 45 1c             	mov    0x1c(%ebp),%eax
  8014f8:	ff 30                	push   (%eax)
  8014fa:	8d 45 d4             	lea    -0x2c(%ebp),%eax
  8014fd:	50                   	push   %eax
  8014fe:	ff 75 18             	push   0x18(%ebp)
  801501:	e8 7d d8 00 00       	call   80ed83 <memcpy>
  801506:	83 c4 10             	add    $0x10,%esp
  801509:	e9 6c ff ff ff       	jmp    80147a <lwip_recvfrom+0x18c>
      netconn_getaddr(sock->conn, addr, &port, 0);
  80150e:	6a 00                	push   $0x0
  801510:	8d 45 e6             	lea    -0x1a(%ebp),%eax
  801513:	50                   	push   %eax
  801514:	8d 45 d8             	lea    -0x28(%ebp),%eax
  801517:	50                   	push   %eax
  801518:	ff 37                	push   (%edi)
  80151a:	e8 9e 97 00 00       	call   80acbd <netconn_getaddr>
  80151f:	83 c4 10             	add    $0x10,%esp
      addr = (struct ip_addr*)&(sin.sin_addr.s_addr);
  801522:	8d 5d d8             	lea    -0x28(%ebp),%ebx
  801525:	eb 8d                	jmp    8014b4 <lwip_recvfrom+0x1c6>
    return -1;
  801527:	b8 ff ff ff ff       	mov    $0xffffffff,%eax
  80152c:	e9 5e ff ff ff       	jmp    80148f <lwip_recvfrom+0x1a1>

00801531 <lwip_read>:
{
  801531:	55                   	push   %ebp
  801532:	89 e5                	mov    %esp,%ebp
  801534:	83 ec 10             	sub    $0x10,%esp
  return lwip_recvfrom(s, mem, len, 0, NULL, NULL);
  801537:	6a 00                	push   $0x0
  801539:	6a 00                	push   $0x0
  80153b:	6a 00                	push   $0x0
  80153d:	ff 75 10             	push   0x10(%ebp)
  801540:	ff 75 0c             	push   0xc(%ebp)
  801543:	ff 75 08             	push   0x8(%ebp)
  801546:	e8 a3 fd ff ff       	call   8012ee <lwip_recvfrom>
}
  80154b:	c9                   	leave  
  80154c:	c3                   	ret    

0080154d <lwip_recv>:
{
  80154d:	55                   	push   %ebp
  80154e:	89 e5                	mov    %esp,%ebp
  801550:	83 ec 10             	sub    $0x10,%esp
  return lwip_recvfrom(s, mem, len, flags, NULL, NULL);
  801553:	6a 00                	push   $0x0
  801555:	6a 00                	push   $0x0
  801557:	ff 75 14             	push   0x14(%ebp)
  80155a:	ff 75 10             	push   0x10(%ebp)
  80155d:	ff 75 0c             	push   0xc(%ebp)
  801560:	ff 75 08             	push   0x8(%ebp)
  801563:	e8 86 fd ff ff       	call   8012ee <lwip_recvfrom>
}
  801568:	c9                   	leave  
  801569:	c3                   	ret    

0080156a <lwip_sendto>:
{
  80156a:	55                   	push   %ebp
  80156b:	89 e5                	mov    %esp,%ebp
  80156d:	57                   	push   %edi
  80156e:	56                   	push   %esi
  80156f:	53                   	push   %ebx
  801570:	83 ec 2c             	sub    $0x2c,%esp
  801573:	8b 7d 10             	mov    0x10(%ebp),%edi
  801576:	8b 75 18             	mov    0x18(%ebp),%esi
  sock = get_socket(s);
  801579:	8b 45 08             	mov    0x8(%ebp),%eax
  80157c:	e8 53 f2 ff ff       	call   8007d4 <get_socket>
  if (!sock)
  801581:	85 c0                	test   %eax,%eax
  801583:	0f 84 28 01 00 00    	je     8016b1 <lwip_sendto+0x147>
  801589:	89 c3                	mov    %eax,%ebx
  if (sock->conn->type==NETCONN_TCP) {
  80158b:	8b 00                	mov    (%eax),%eax
  80158d:	83 38 10             	cmpl   $0x10,(%eax)
  801590:	0f 84 be 00 00 00    	je     801654 <lwip_sendto+0xea>
  LWIP_ASSERT("lwip_sendto: size must fit in u16_t",
  801596:	81 ff ff ff 00 00    	cmp    $0xffff,%edi
  80159c:	0f 87 c8 00 00 00    	ja     80166a <lwip_sendto+0x100>
  LWIP_ERROR("lwip_sendto: invalid address", (((to == NULL) && (tolen == 0)) ||
  8015a2:	89 f2                	mov    %esi,%edx
  8015a4:	0b 55 1c             	or     0x1c(%ebp),%edx
  8015a7:	0f 84 0b 01 00 00    	je     8016b8 <lwip_sendto+0x14e>
  8015ad:	83 7d 1c 10          	cmpl   $0x10,0x1c(%ebp)
  8015b1:	0f 85 ca 00 00 00    	jne    801681 <lwip_sendto+0x117>
  8015b7:	80 7e 01 02          	cmpb   $0x2,0x1(%esi)
  8015bb:	0f 85 c0 00 00 00    	jne    801681 <lwip_sendto+0x117>
  buf.p = buf.ptr = NULL;
  8015c1:	c7 45 d8 00 00 00 00 	movl   $0x0,-0x28(%ebp)
  8015c8:	c7 45 d4 00 00 00 00 	movl   $0x0,-0x2c(%ebp)
    remote_addr.addr = ((struct sockaddr_in *)to)->sin_addr.s_addr;
  8015cf:	8b 46 04             	mov    0x4(%esi),%eax
  8015d2:	89 45 e4             	mov    %eax,-0x1c(%ebp)
    remote_port      = ntohs(((struct sockaddr_in *)to)->sin_port);
  8015d5:	83 ec 0c             	sub    $0xc,%esp
  8015d8:	0f b7 46 02          	movzwl 0x2(%esi),%eax
  8015dc:	50                   	push   %eax
  8015dd:	e8 b1 60 00 00       	call   807693 <ntohs>
  8015e2:	83 c4 10             	add    $0x10,%esp
  8015e5:	8d 55 e4             	lea    -0x1c(%ebp),%edx
    buf.addr         = &remote_addr;
  8015e8:	89 55 dc             	mov    %edx,-0x24(%ebp)
    buf.port         = remote_port;
  8015eb:	66 89 45 e0          	mov    %ax,-0x20(%ebp)
  if ((err = netbuf_ref(&buf, data, size)) == ERR_OK) {
  8015ef:	83 ec 04             	sub    $0x4,%esp
  8015f2:	0f b7 c7             	movzwl %di,%eax
  8015f5:	50                   	push   %eax
  8015f6:	ff 75 0c             	push   0xc(%ebp)
  8015f9:	8d 45 d4             	lea    -0x2c(%ebp),%eax
  8015fc:	50                   	push   %eax
  8015fd:	e8 bd 0f 00 00       	call   8025bf <netbuf_ref>
  801602:	0f be f0             	movsbl %al,%esi
  801605:	83 c4 10             	add    $0x10,%esp
  801608:	85 f6                	test   %esi,%esi
  80160a:	0f 84 88 00 00 00    	je     801698 <lwip_sendto+0x12e>
  if (buf.p != NULL) {
  801610:	8b 45 d4             	mov    -0x2c(%ebp),%eax
  801613:	85 c0                	test   %eax,%eax
  801615:	74 0c                	je     801623 <lwip_sendto+0xb9>
    pbuf_free(buf.p);
  801617:	83 ec 0c             	sub    $0xc,%esp
  80161a:	50                   	push   %eax
  80161b:	e8 2c 32 00 00       	call   80484c <pbuf_free>
  801620:	83 c4 10             	add    $0x10,%esp
  sock_set_errno(sock, err_to_errno(err));
  801623:	89 f2                	mov    %esi,%edx
  801625:	f7 da                	neg    %edx
  801627:	b8 05 00 00 00       	mov    $0x5,%eax
  80162c:	83 fa 0e             	cmp    $0xe,%edx
  80162f:	77 07                	ja     801638 <lwip_sendto+0xce>
  801631:	8b 04 95 60 0f 81 00 	mov    0x810f60(,%edx,4),%eax
  801638:	89 43 10             	mov    %eax,0x10(%ebx)
  80163b:	a3 34 50 81 00       	mov    %eax,0x815034
  return (err==ERR_OK?size:-1);
  801640:	85 f6                	test   %esi,%esi
  801642:	b8 ff ff ff ff       	mov    $0xffffffff,%eax
  801647:	0f 45 f8             	cmovne %eax,%edi
}
  80164a:	89 f8                	mov    %edi,%eax
  80164c:	8d 65 f4             	lea    -0xc(%ebp),%esp
  80164f:	5b                   	pop    %ebx
  801650:	5e                   	pop    %esi
  801651:	5f                   	pop    %edi
  801652:	5d                   	pop    %ebp
  801653:	c3                   	ret    
    return lwip_send(s, data, size, flags);
  801654:	ff 75 14             	push   0x14(%ebp)
  801657:	57                   	push   %edi
  801658:	ff 75 0c             	push   0xc(%ebp)
  80165b:	ff 75 08             	push   0x8(%ebp)
  80165e:	e8 74 00 00 00       	call   8016d7 <lwip_send>
  801663:	89 c7                	mov    %eax,%edi
  801665:	83 c4 10             	add    $0x10,%esp
  801668:	eb e0                	jmp    80164a <lwip_sendto+0xe0>
  LWIP_ASSERT("lwip_sendto: size must fit in u16_t",
  80166a:	83 ec 04             	sub    $0x4,%esp
  80166d:	68 20 0f 81 00       	push   $0x810f20
  801672:	68 96 02 00 00       	push   $0x296
  801677:	68 90 0e 81 00       	push   $0x810e90
  80167c:	e8 55 ce 00 00       	call   80e4d6 <_panic>
  LWIP_ERROR("lwip_sendto: invalid address", (((to == NULL) && (tolen == 0)) ||
  801681:	83 ec 04             	sub    $0x4,%esp
  801684:	68 01 0f 81 00       	push   $0x810f01
  801689:	68 98 02 00 00       	push   $0x298
  80168e:	68 90 0e 81 00       	push   $0x810e90
  801693:	e8 3e ce 00 00       	call   80e4d6 <_panic>
    err = netconn_send(sock->conn, &buf);
  801698:	83 ec 08             	sub    $0x8,%esp
  80169b:	8d 45 d4             	lea    -0x2c(%ebp),%eax
  80169e:	50                   	push   %eax
  80169f:	ff 33                	push   (%ebx)
  8016a1:	e8 d4 99 00 00       	call   80b07a <netconn_send>
  8016a6:	0f be f0             	movsbl %al,%esi
  8016a9:	83 c4 10             	add    $0x10,%esp
  8016ac:	e9 5f ff ff ff       	jmp    801610 <lwip_sendto+0xa6>
    return -1;
  8016b1:	bf ff ff ff ff       	mov    $0xffffffff,%edi
  8016b6:	eb 92                	jmp    80164a <lwip_sendto+0xe0>
  buf.p = buf.ptr = NULL;
  8016b8:	c7 45 d8 00 00 00 00 	movl   $0x0,-0x28(%ebp)
  8016bf:	c7 45 d4 00 00 00 00 	movl   $0x0,-0x2c(%ebp)
    remote_addr.addr = 0;
  8016c6:	c7 45 e4 00 00 00 00 	movl   $0x0,-0x1c(%ebp)
  8016cd:	b8 00 00 00 00       	mov    $0x0,%eax
  8016d2:	e9 11 ff ff ff       	jmp    8015e8 <lwip_sendto+0x7e>

008016d7 <lwip_send>:
{
  8016d7:	55                   	push   %ebp
  8016d8:	89 e5                	mov    %esp,%ebp
  8016da:	57                   	push   %edi
  8016db:	56                   	push   %esi
  8016dc:	53                   	push   %ebx
  8016dd:	83 ec 0c             	sub    $0xc,%esp
  8016e0:	8b 7d 08             	mov    0x8(%ebp),%edi
  8016e3:	8b 75 10             	mov    0x10(%ebp),%esi
  sock = get_socket(s);
  8016e6:	89 f8                	mov    %edi,%eax
  8016e8:	e8 e7 f0 ff ff       	call   8007d4 <get_socket>
  if (!sock)
  8016ed:	85 c0                	test   %eax,%eax
  8016ef:	74 6d                	je     80175e <lwip_send+0x87>
  8016f1:	89 c3                	mov    %eax,%ebx
  if (sock->conn->type!=NETCONN_TCP) {
  8016f3:	8b 10                	mov    (%eax),%edx
  8016f5:	83 3a 10             	cmpl   $0x10,(%edx)
  8016f8:	74 1f                	je     801719 <lwip_send+0x42>
    return lwip_sendto(s, data, size, flags, NULL, 0);
  8016fa:	83 ec 08             	sub    $0x8,%esp
  8016fd:	6a 00                	push   $0x0
  8016ff:	6a 00                	push   $0x0
  801701:	ff 75 14             	push   0x14(%ebp)
  801704:	56                   	push   %esi
  801705:	ff 75 0c             	push   0xc(%ebp)
  801708:	57                   	push   %edi
  801709:	e8 5c fe ff ff       	call   80156a <lwip_sendto>
  80170e:	83 c4 20             	add    $0x20,%esp
}
  801711:	8d 65 f4             	lea    -0xc(%ebp),%esp
  801714:	5b                   	pop    %ebx
  801715:	5e                   	pop    %esi
  801716:	5f                   	pop    %edi
  801717:	5d                   	pop    %ebp
  801718:	c3                   	ret    
  err = netconn_write(sock->conn, data, size, NETCONN_COPY | ((flags & MSG_MORE)?NETCONN_MORE:0));
  801719:	8b 45 14             	mov    0x14(%ebp),%eax
  80171c:	c1 e8 03             	shr    $0x3,%eax
  80171f:	83 e0 02             	and    $0x2,%eax
  801722:	83 c8 01             	or     $0x1,%eax
  801725:	50                   	push   %eax
  801726:	56                   	push   %esi
  801727:	ff 75 0c             	push   0xc(%ebp)
  80172a:	52                   	push   %edx
  80172b:	e8 c6 99 00 00       	call   80b0f6 <netconn_write>
  sock_set_errno(sock, err_to_errno(err));
  801730:	0f be d0             	movsbl %al,%edx
  801733:	f7 da                	neg    %edx
  801735:	83 c4 10             	add    $0x10,%esp
  801738:	b9 05 00 00 00       	mov    $0x5,%ecx
  80173d:	83 fa 0e             	cmp    $0xe,%edx
  801740:	77 07                	ja     801749 <lwip_send+0x72>
  801742:	8b 0c 95 60 0f 81 00 	mov    0x810f60(,%edx,4),%ecx
  801749:	89 4b 10             	mov    %ecx,0x10(%ebx)
  80174c:	89 0d 34 50 81 00    	mov    %ecx,0x815034
  return (err==ERR_OK?size:-1);
  801752:	84 c0                	test   %al,%al
  801754:	b8 ff ff ff ff       	mov    $0xffffffff,%eax
  801759:	0f 44 c6             	cmove  %esi,%eax
  80175c:	eb b3                	jmp    801711 <lwip_send+0x3a>
    return -1;
  80175e:	b8 ff ff ff ff       	mov    $0xffffffff,%eax
  801763:	eb ac                	jmp    801711 <lwip_send+0x3a>

00801765 <lwip_socket>:
{
  801765:	55                   	push   %ebp
  801766:	89 e5                	mov    %esp,%ebp
  801768:	56                   	push   %esi
  801769:	53                   	push   %ebx
  80176a:	8b 45 0c             	mov    0xc(%ebp),%eax
  switch (type) {
  80176d:	83 f8 02             	cmp    $0x2,%eax
  801770:	74 57                	je     8017c9 <lwip_socket+0x64>
  801772:	83 f8 03             	cmp    $0x3,%eax
  801775:	74 11                	je     801788 <lwip_socket+0x23>
  801777:	83 f8 01             	cmp    $0x1,%eax
  80177a:	74 74                	je     8017f0 <lwip_socket+0x8b>
  80177c:	b8 16 00 00 00       	mov    $0x16,%eax
  801781:	bb ff ff ff ff       	mov    $0xffffffff,%ebx
  801786:	eb 33                	jmp    8017bb <lwip_socket+0x56>
    conn = netconn_new_with_proto_and_callback(NETCONN_RAW, (u8_t)protocol, event_callback);
  801788:	83 ec 04             	sub    $0x4,%esp
  80178b:	68 b8 09 80 00       	push   $0x8009b8
  801790:	0f b6 45 10          	movzbl 0x10(%ebp),%eax
  801794:	50                   	push   %eax
  801795:	6a 40                	push   $0x40
  801797:	e8 de 93 00 00       	call   80ab7a <netconn_new_with_proto_and_callback>
  80179c:	89 c6                	mov    %eax,%esi
    break;
  80179e:	83 c4 10             	add    $0x10,%esp
  if (!conn) {
  8017a1:	85 f6                	test   %esi,%esi
  8017a3:	74 76                	je     80181b <lwip_socket+0xb6>
  i = alloc_socket(conn);
  8017a5:	89 f0                	mov    %esi,%eax
  8017a7:	e8 ab f3 ff ff       	call   800b57 <alloc_socket>
  8017ac:	89 c3                	mov    %eax,%ebx
  if (i == -1) {
  8017ae:	83 f8 ff             	cmp    $0xffffffff,%eax
  8017b1:	74 55                	je     801808 <lwip_socket+0xa3>
  conn->socket = i;
  8017b3:	89 46 1c             	mov    %eax,0x1c(%esi)
  return i;
  8017b6:	b8 00 00 00 00       	mov    $0x0,%eax
    set_errno(EINVAL);
  8017bb:	a3 34 50 81 00       	mov    %eax,0x815034
}
  8017c0:	89 d8                	mov    %ebx,%eax
  8017c2:	8d 65 f8             	lea    -0x8(%ebp),%esp
  8017c5:	5b                   	pop    %ebx
  8017c6:	5e                   	pop    %esi
  8017c7:	5d                   	pop    %ebp
  8017c8:	c3                   	ret    
    conn = netconn_new_with_callback( (protocol == IPPROTO_UDPLITE) ?
  8017c9:	81 7d 10 88 00 00 00 	cmpl   $0x88,0x10(%ebp)
  8017d0:	0f 94 c0             	sete   %al
  8017d3:	0f b6 c0             	movzbl %al,%eax
  8017d6:	83 c0 20             	add    $0x20,%eax
  8017d9:	83 ec 04             	sub    $0x4,%esp
  8017dc:	68 b8 09 80 00       	push   $0x8009b8
  8017e1:	6a 00                	push   $0x0
  8017e3:	50                   	push   %eax
  8017e4:	e8 91 93 00 00       	call   80ab7a <netconn_new_with_proto_and_callback>
  8017e9:	89 c6                	mov    %eax,%esi
    break;
  8017eb:	83 c4 10             	add    $0x10,%esp
  8017ee:	eb b1                	jmp    8017a1 <lwip_socket+0x3c>
    conn = netconn_new_with_callback(NETCONN_TCP, event_callback);
  8017f0:	83 ec 04             	sub    $0x4,%esp
  8017f3:	68 b8 09 80 00       	push   $0x8009b8
  8017f8:	6a 00                	push   $0x0
  8017fa:	6a 10                	push   $0x10
  8017fc:	e8 79 93 00 00       	call   80ab7a <netconn_new_with_proto_and_callback>
  801801:	89 c6                	mov    %eax,%esi
    break;
  801803:	83 c4 10             	add    $0x10,%esp
  801806:	eb 99                	jmp    8017a1 <lwip_socket+0x3c>
    netconn_delete(conn);
  801808:	83 ec 0c             	sub    $0xc,%esp
  80180b:	56                   	push   %esi
  80180c:	e8 44 94 00 00       	call   80ac55 <netconn_delete>
    return -1;
  801811:	83 c4 10             	add    $0x10,%esp
  801814:	b8 17 00 00 00       	mov    $0x17,%eax
  801819:	eb a0                	jmp    8017bb <lwip_socket+0x56>
  80181b:	b8 69 00 00 00       	mov    $0x69,%eax
    return -1;
  801820:	bb ff ff ff ff       	mov    $0xffffffff,%ebx
  801825:	eb 94                	jmp    8017bb <lwip_socket+0x56>

00801827 <lwip_write>:
{
  801827:	55                   	push   %ebp
  801828:	89 e5                	mov    %esp,%ebp
  80182a:	83 ec 08             	sub    $0x8,%esp
  return lwip_send(s, data, size, 0);
  80182d:	6a 00                	push   $0x0
  80182f:	ff 75 10             	push   0x10(%ebp)
  801832:	ff 75 0c             	push   0xc(%ebp)
  801835:	ff 75 08             	push   0x8(%ebp)
  801838:	e8 9a fe ff ff       	call   8016d7 <lwip_send>
}
  80183d:	c9                   	leave  
  80183e:	c3                   	ret    

0080183f <lwip_select>:
{
  80183f:	55                   	push   %ebp
  801840:	89 e5                	mov    %esp,%ebp
  801842:	57                   	push   %edi
  801843:	56                   	push   %esi
  801844:	53                   	push   %ebx
  801845:	83 ec 58             	sub    $0x58,%esp
  801848:	8b 5d 0c             	mov    0xc(%ebp),%ebx
  80184b:	8b 75 10             	mov    0x10(%ebp),%esi
  80184e:	8b 7d 14             	mov    0x14(%ebp),%edi
  select_cb.next = 0;
  801851:	c7 45 c4 00 00 00 00 	movl   $0x0,-0x3c(%ebp)
  select_cb.readset = readset;
  801858:	89 5d c8             	mov    %ebx,-0x38(%ebp)
  select_cb.writeset = writeset;
  80185b:	89 75 cc             	mov    %esi,-0x34(%ebp)
  select_cb.exceptset = exceptset;
  80185e:	89 7d d0             	mov    %edi,-0x30(%ebp)
  select_cb.sem_signalled = 0;
  801861:	c7 45 d4 00 00 00 00 	movl   $0x0,-0x2c(%ebp)
  sys_sem_wait(selectsem);
  801868:	ff 35 80 50 81 00    	push   0x815080
  80186e:	e8 95 38 00 00       	call   805108 <sys_sem_wait>
  if (readset)
  801873:	83 c4 10             	add    $0x10,%esp
  801876:	85 db                	test   %ebx,%ebx
  801878:	0f 84 0b 01 00 00    	je     801989 <lwip_select+0x14a>
    lreadset = *readset;
  80187e:	8b 03                	mov    (%ebx),%eax
  801880:	89 45 e4             	mov    %eax,-0x1c(%ebp)
  if (writeset)
  801883:	85 f6                	test   %esi,%esi
  801885:	0f 84 16 01 00 00    	je     8019a1 <lwip_select+0x162>
    lwriteset = *writeset;
  80188b:	8b 06                	mov    (%esi),%eax
  80188d:	89 45 e0             	mov    %eax,-0x20(%ebp)
  if (exceptset)
  801890:	85 ff                	test   %edi,%edi
  801892:	0f 84 21 01 00 00    	je     8019b9 <lwip_select+0x17a>
    lexceptset = *exceptset;
  801898:	8b 07                	mov    (%edi),%eax
  80189a:	89 45 dc             	mov    %eax,-0x24(%ebp)
  nready = lwip_selscan(maxfdp1, &lreadset, &lwriteset, &lexceptset);
  80189d:	83 ec 0c             	sub    $0xc,%esp
  8018a0:	8d 45 dc             	lea    -0x24(%ebp),%eax
  8018a3:	50                   	push   %eax
  8018a4:	8d 4d e0             	lea    -0x20(%ebp),%ecx
  8018a7:	8d 55 e4             	lea    -0x1c(%ebp),%edx
  8018aa:	8b 45 08             	mov    0x8(%ebp),%eax
  8018ad:	e8 61 ef ff ff       	call   800813 <lwip_selscan>
  8018b2:	89 45 b4             	mov    %eax,-0x4c(%ebp)
  if (!nready) {
  8018b5:	83 c4 10             	add    $0x10,%esp
  8018b8:	85 c0                	test   %eax,%eax
  8018ba:	0f 85 90 02 00 00    	jne    801b50 <lwip_select+0x311>
    if (timeout && timeout->tv_sec == 0 && timeout->tv_usec == 0) {
  8018c0:	83 7d 18 00          	cmpl   $0x0,0x18(%ebp)
  8018c4:	0f 84 9c 02 00 00    	je     801b66 <lwip_select+0x327>
  8018ca:	8b 45 18             	mov    0x18(%ebp),%eax
  8018cd:	83 38 00             	cmpl   $0x0,(%eax)
  8018d0:	75 0e                	jne    8018e0 <lwip_select+0xa1>
  8018d2:	8b 40 04             	mov    0x4(%eax),%eax
  8018d5:	89 45 b4             	mov    %eax,-0x4c(%ebp)
  8018d8:	85 c0                	test   %eax,%eax
  8018da:	0f 84 f1 00 00 00    	je     8019d1 <lwip_select+0x192>
    select_cb.sem = sys_sem_new(0);
  8018e0:	83 ec 0c             	sub    $0xc,%esp
  8018e3:	6a 00                	push   $0x0
  8018e5:	e8 7a 84 00 00       	call   809d64 <sys_sem_new>
  8018ea:	89 45 d8             	mov    %eax,-0x28(%ebp)
    select_cb.next = select_cb_list;
  8018ed:	a1 88 50 81 00       	mov    0x815088,%eax
  8018f2:	89 45 c4             	mov    %eax,-0x3c(%ebp)
    select_cb_list = &select_cb;
  8018f5:	8d 45 c4             	lea    -0x3c(%ebp),%eax
  8018f8:	a3 88 50 81 00       	mov    %eax,0x815088
    sys_sem_signal(selectsem);
  8018fd:	83 c4 04             	add    $0x4,%esp
  801900:	ff 35 80 50 81 00    	push   0x815080
  801906:	e8 16 87 00 00       	call   80a021 <sys_sem_signal>
      msectimeout =  ((timeout->tv_sec * 1000) + ((timeout->tv_usec + 500)/1000));
  80190b:	8b 45 18             	mov    0x18(%ebp),%eax
  80190e:	8b 40 04             	mov    0x4(%eax),%eax
  801911:	89 45 b4             	mov    %eax,-0x4c(%ebp)
  801914:	8d 88 f4 01 00 00    	lea    0x1f4(%eax),%ecx
  80191a:	ba d3 4d 62 10       	mov    $0x10624dd3,%edx
  80191f:	89 c8                	mov    %ecx,%eax
  801921:	f7 ea                	imul   %edx
  801923:	c1 fa 06             	sar    $0x6,%edx
  801926:	c1 f9 1f             	sar    $0x1f,%ecx
  801929:	29 ca                	sub    %ecx,%edx
  80192b:	8b 45 18             	mov    0x18(%ebp),%eax
  80192e:	69 00 e8 03 00 00    	imul   $0x3e8,(%eax),%eax
  801934:	01 c2                	add    %eax,%edx
  801936:	b8 01 00 00 00       	mov    $0x1,%eax
  80193b:	0f 44 d0             	cmove  %eax,%edx
  80193e:	83 c4 10             	add    $0x10,%esp
    i = sys_sem_wait_timeout(select_cb.sem, msectimeout);
  801941:	83 ec 08             	sub    $0x8,%esp
  801944:	52                   	push   %edx
  801945:	ff 75 d8             	push   -0x28(%ebp)
  801948:	e8 87 39 00 00       	call   8052d4 <sys_sem_wait_timeout>
  80194d:	89 45 b4             	mov    %eax,-0x4c(%ebp)
    sys_sem_wait(selectsem);
  801950:	83 c4 04             	add    $0x4,%esp
  801953:	ff 35 80 50 81 00    	push   0x815080
  801959:	e8 aa 37 00 00       	call   805108 <sys_sem_wait>
    if (select_cb_list == &select_cb)
  80195e:	a1 88 50 81 00       	mov    0x815088,%eax
  801963:	8d 55 c4             	lea    -0x3c(%ebp),%edx
  801966:	83 c4 10             	add    $0x10,%esp
        if (p_selcb->next == &select_cb) {
  801969:	89 d1                	mov    %edx,%ecx
    if (select_cb_list == &select_cb)
  80196b:	39 d0                	cmp    %edx,%eax
  80196d:	0f 84 b4 00 00 00    	je     801a27 <lwip_select+0x1e8>
      for (p_selcb = select_cb_list; p_selcb; p_selcb = p_selcb->next) {
  801973:	85 c0                	test   %eax,%eax
  801975:	0f 84 bb 00 00 00    	je     801a36 <lwip_select+0x1f7>
        if (p_selcb->next == &select_cb) {
  80197b:	8b 10                	mov    (%eax),%edx
  80197d:	39 ca                	cmp    %ecx,%edx
  80197f:	0f 84 ac 00 00 00    	je     801a31 <lwip_select+0x1f2>
      for (p_selcb = select_cb_list; p_selcb; p_selcb = p_selcb->next) {
  801985:	89 d0                	mov    %edx,%eax
  801987:	eb ea                	jmp    801973 <lwip_select+0x134>
    FD_ZERO(&lreadset);
  801989:	83 ec 04             	sub    $0x4,%esp
  80198c:	6a 04                	push   $0x4
  80198e:	6a 00                	push   $0x0
  801990:	8d 45 e4             	lea    -0x1c(%ebp),%eax
  801993:	50                   	push   %eax
  801994:	e8 42 d3 00 00       	call   80ecdb <memset>
  801999:	83 c4 10             	add    $0x10,%esp
  80199c:	e9 e2 fe ff ff       	jmp    801883 <lwip_select+0x44>
    FD_ZERO(&lwriteset);
  8019a1:	83 ec 04             	sub    $0x4,%esp
  8019a4:	6a 04                	push   $0x4
  8019a6:	6a 00                	push   $0x0
  8019a8:	8d 45 e0             	lea    -0x20(%ebp),%eax
  8019ab:	50                   	push   %eax
  8019ac:	e8 2a d3 00 00       	call   80ecdb <memset>
  8019b1:	83 c4 10             	add    $0x10,%esp
  8019b4:	e9 d7 fe ff ff       	jmp    801890 <lwip_select+0x51>
    FD_ZERO(&lexceptset);
  8019b9:	83 ec 04             	sub    $0x4,%esp
  8019bc:	6a 04                	push   $0x4
  8019be:	6a 00                	push   $0x0
  8019c0:	8d 45 dc             	lea    -0x24(%ebp),%eax
  8019c3:	50                   	push   %eax
  8019c4:	e8 12 d3 00 00       	call   80ecdb <memset>
  8019c9:	83 c4 10             	add    $0x10,%esp
  8019cc:	e9 cc fe ff ff       	jmp    80189d <lwip_select+0x5e>
      sys_sem_signal(selectsem);
  8019d1:	83 ec 0c             	sub    $0xc,%esp
  8019d4:	ff 35 80 50 81 00    	push   0x815080
  8019da:	e8 42 86 00 00       	call   80a021 <sys_sem_signal>
      if (readset)
  8019df:	83 c4 10             	add    $0x10,%esp
  8019e2:	85 db                	test   %ebx,%ebx
  8019e4:	74 10                	je     8019f6 <lwip_select+0x1b7>
        FD_ZERO(readset);
  8019e6:	83 ec 04             	sub    $0x4,%esp
  8019e9:	6a 04                	push   $0x4
  8019eb:	6a 00                	push   $0x0
  8019ed:	53                   	push   %ebx
  8019ee:	e8 e8 d2 00 00       	call   80ecdb <memset>
  8019f3:	83 c4 10             	add    $0x10,%esp
      if (writeset)
  8019f6:	85 f6                	test   %esi,%esi
  8019f8:	74 10                	je     801a0a <lwip_select+0x1cb>
        FD_ZERO(writeset);
  8019fa:	83 ec 04             	sub    $0x4,%esp
  8019fd:	6a 04                	push   $0x4
  8019ff:	6a 00                	push   $0x0
  801a01:	56                   	push   %esi
  801a02:	e8 d4 d2 00 00       	call   80ecdb <memset>
  801a07:	83 c4 10             	add    $0x10,%esp
      if (exceptset)
  801a0a:	85 ff                	test   %edi,%edi
  801a0c:	0f 84 a3 00 00 00    	je     801ab5 <lwip_select+0x276>
        FD_ZERO(exceptset);
  801a12:	83 ec 04             	sub    $0x4,%esp
  801a15:	6a 04                	push   $0x4
  801a17:	6a 00                	push   $0x0
  801a19:	57                   	push   %edi
  801a1a:	e8 bc d2 00 00       	call   80ecdb <memset>
  801a1f:	83 c4 10             	add    $0x10,%esp
      return 0;
  801a22:	e9 8e 00 00 00       	jmp    801ab5 <lwip_select+0x276>
      select_cb_list = select_cb.next;
  801a27:	8b 45 c4             	mov    -0x3c(%ebp),%eax
  801a2a:	a3 88 50 81 00       	mov    %eax,0x815088
  801a2f:	eb 05                	jmp    801a36 <lwip_select+0x1f7>
          p_selcb->next = select_cb.next;
  801a31:	8b 55 c4             	mov    -0x3c(%ebp),%edx
  801a34:	89 10                	mov    %edx,(%eax)
    sys_sem_signal(selectsem);
  801a36:	83 ec 0c             	sub    $0xc,%esp
  801a39:	ff 35 80 50 81 00    	push   0x815080
  801a3f:	e8 dd 85 00 00       	call   80a021 <sys_sem_signal>
    sys_sem_free(select_cb.sem);
  801a44:	83 c4 04             	add    $0x4,%esp
  801a47:	ff 75 d8             	push   -0x28(%ebp)
  801a4a:	e8 96 83 00 00       	call   809de5 <sys_sem_free>
    if (i == 0)  {
  801a4f:	83 c4 10             	add    $0x10,%esp
  801a52:	83 7d b4 00          	cmpl   $0x0,-0x4c(%ebp)
  801a56:	74 72                	je     801aca <lwip_select+0x28b>
    if (readset)
  801a58:	85 db                	test   %ebx,%ebx
  801a5a:	0f 84 a8 00 00 00    	je     801b08 <lwip_select+0x2c9>
      lreadset = *readset;
  801a60:	8b 03                	mov    (%ebx),%eax
  801a62:	89 45 e4             	mov    %eax,-0x1c(%ebp)
    if (writeset)
  801a65:	85 f6                	test   %esi,%esi
  801a67:	0f 84 b3 00 00 00    	je     801b20 <lwip_select+0x2e1>
      lwriteset = *writeset;
  801a6d:	8b 06                	mov    (%esi),%eax
  801a6f:	89 45 e0             	mov    %eax,-0x20(%ebp)
    if (exceptset)
  801a72:	85 ff                	test   %edi,%edi
  801a74:	0f 84 be 00 00 00    	je     801b38 <lwip_select+0x2f9>
      lexceptset = *exceptset;
  801a7a:	8b 07                	mov    (%edi),%eax
  801a7c:	89 45 dc             	mov    %eax,-0x24(%ebp)
    nready = lwip_selscan(maxfdp1, &lreadset, &lwriteset, &lexceptset);
  801a7f:	83 ec 0c             	sub    $0xc,%esp
  801a82:	8d 45 dc             	lea    -0x24(%ebp),%eax
  801a85:	50                   	push   %eax
  801a86:	8d 4d e0             	lea    -0x20(%ebp),%ecx
  801a89:	8d 55 e4             	lea    -0x1c(%ebp),%edx
  801a8c:	8b 45 08             	mov    0x8(%ebp),%eax
  801a8f:	e8 7f ed ff ff       	call   800813 <lwip_selscan>
  801a94:	89 45 b4             	mov    %eax,-0x4c(%ebp)
  801a97:	83 c4 10             	add    $0x10,%esp
  if (readset)
  801a9a:	85 db                	test   %ebx,%ebx
  801a9c:	74 05                	je     801aa3 <lwip_select+0x264>
    *readset = lreadset;
  801a9e:	8b 45 e4             	mov    -0x1c(%ebp),%eax
  801aa1:	89 03                	mov    %eax,(%ebx)
  if (writeset)
  801aa3:	85 f6                	test   %esi,%esi
  801aa5:	74 05                	je     801aac <lwip_select+0x26d>
    *writeset = lwriteset;
  801aa7:	8b 45 e0             	mov    -0x20(%ebp),%eax
  801aaa:	89 06                	mov    %eax,(%esi)
  if (exceptset)
  801aac:	85 ff                	test   %edi,%edi
  801aae:	74 05                	je     801ab5 <lwip_select+0x276>
    *exceptset = lexceptset;
  801ab0:	8b 45 dc             	mov    -0x24(%ebp),%eax
  801ab3:	89 07                	mov    %eax,(%edi)
      set_errno(0);
  801ab5:	c7 05 34 50 81 00 00 	movl   $0x0,0x815034
  801abc:	00 00 00 
}
  801abf:	8b 45 b4             	mov    -0x4c(%ebp),%eax
  801ac2:	8d 65 f4             	lea    -0xc(%ebp),%esp
  801ac5:	5b                   	pop    %ebx
  801ac6:	5e                   	pop    %esi
  801ac7:	5f                   	pop    %edi
  801ac8:	5d                   	pop    %ebp
  801ac9:	c3                   	ret    
      if (readset)
  801aca:	85 db                	test   %ebx,%ebx
  801acc:	74 10                	je     801ade <lwip_select+0x29f>
        FD_ZERO(readset);
  801ace:	83 ec 04             	sub    $0x4,%esp
  801ad1:	6a 04                	push   $0x4
  801ad3:	6a 00                	push   $0x0
  801ad5:	53                   	push   %ebx
  801ad6:	e8 00 d2 00 00       	call   80ecdb <memset>
  801adb:	83 c4 10             	add    $0x10,%esp
      if (writeset)
  801ade:	85 f6                	test   %esi,%esi
  801ae0:	74 10                	je     801af2 <lwip_select+0x2b3>
        FD_ZERO(writeset);
  801ae2:	83 ec 04             	sub    $0x4,%esp
  801ae5:	6a 04                	push   $0x4
  801ae7:	6a 00                	push   $0x0
  801ae9:	56                   	push   %esi
  801aea:	e8 ec d1 00 00       	call   80ecdb <memset>
  801aef:	83 c4 10             	add    $0x10,%esp
      if (exceptset)
  801af2:	85 ff                	test   %edi,%edi
  801af4:	74 bf                	je     801ab5 <lwip_select+0x276>
        FD_ZERO(exceptset);
  801af6:	83 ec 04             	sub    $0x4,%esp
  801af9:	6a 04                	push   $0x4
  801afb:	6a 00                	push   $0x0
  801afd:	57                   	push   %edi
  801afe:	e8 d8 d1 00 00       	call   80ecdb <memset>
  801b03:	83 c4 10             	add    $0x10,%esp
      return 0;
  801b06:	eb ad                	jmp    801ab5 <lwip_select+0x276>
      FD_ZERO(&lreadset);
  801b08:	83 ec 04             	sub    $0x4,%esp
  801b0b:	6a 04                	push   $0x4
  801b0d:	6a 00                	push   $0x0
  801b0f:	8d 45 e4             	lea    -0x1c(%ebp),%eax
  801b12:	50                   	push   %eax
  801b13:	e8 c3 d1 00 00       	call   80ecdb <memset>
  801b18:	83 c4 10             	add    $0x10,%esp
  801b1b:	e9 45 ff ff ff       	jmp    801a65 <lwip_select+0x226>
      FD_ZERO(&lwriteset);
  801b20:	83 ec 04             	sub    $0x4,%esp
  801b23:	6a 04                	push   $0x4
  801b25:	6a 00                	push   $0x0
  801b27:	8d 45 e0             	lea    -0x20(%ebp),%eax
  801b2a:	50                   	push   %eax
  801b2b:	e8 ab d1 00 00       	call   80ecdb <memset>
  801b30:	83 c4 10             	add    $0x10,%esp
  801b33:	e9 3a ff ff ff       	jmp    801a72 <lwip_select+0x233>
      FD_ZERO(&lexceptset);
  801b38:	83 ec 04             	sub    $0x4,%esp
  801b3b:	6a 04                	push   $0x4
  801b3d:	6a 00                	push   $0x0
  801b3f:	8d 45 dc             	lea    -0x24(%ebp),%eax
  801b42:	50                   	push   %eax
  801b43:	e8 93 d1 00 00       	call   80ecdb <memset>
  801b48:	83 c4 10             	add    $0x10,%esp
  801b4b:	e9 2f ff ff ff       	jmp    801a7f <lwip_select+0x240>
    sys_sem_signal(selectsem);
  801b50:	83 ec 0c             	sub    $0xc,%esp
  801b53:	ff 35 80 50 81 00    	push   0x815080
  801b59:	e8 c3 84 00 00       	call   80a021 <sys_sem_signal>
  801b5e:	83 c4 10             	add    $0x10,%esp
  801b61:	e9 34 ff ff ff       	jmp    801a9a <lwip_select+0x25b>
    select_cb.sem = sys_sem_new(0);
  801b66:	83 ec 0c             	sub    $0xc,%esp
  801b69:	6a 00                	push   $0x0
  801b6b:	e8 f4 81 00 00       	call   809d64 <sys_sem_new>
  801b70:	89 45 d8             	mov    %eax,-0x28(%ebp)
    select_cb.next = select_cb_list;
  801b73:	a1 88 50 81 00       	mov    0x815088,%eax
  801b78:	89 45 c4             	mov    %eax,-0x3c(%ebp)
    select_cb_list = &select_cb;
  801b7b:	8d 45 c4             	lea    -0x3c(%ebp),%eax
  801b7e:	a3 88 50 81 00       	mov    %eax,0x815088
    sys_sem_signal(selectsem);
  801b83:	83 c4 04             	add    $0x4,%esp
  801b86:	ff 35 80 50 81 00    	push   0x815080
  801b8c:	e8 90 84 00 00       	call   80a021 <sys_sem_signal>
  801b91:	83 c4 10             	add    $0x10,%esp
      msectimeout = 0;
  801b94:	ba 00 00 00 00       	mov    $0x0,%edx
  801b99:	e9 a3 fd ff ff       	jmp    801941 <lwip_select+0x102>

00801b9e <lwip_shutdown>:
{
  801b9e:	55                   	push   %ebp
  801b9f:	89 e5                	mov    %esp,%ebp
  801ba1:	83 ec 14             	sub    $0x14,%esp
  return lwip_close(s); /* XXX temporary hack until proper implementation */
  801ba4:	ff 75 08             	push   0x8(%ebp)
  801ba7:	e8 7d f5 ff ff       	call   801129 <lwip_close>
}
  801bac:	c9                   	leave  
  801bad:	c3                   	ret    

00801bae <lwip_getpeername>:
{
  801bae:	55                   	push   %ebp
  801baf:	89 e5                	mov    %esp,%ebp
  801bb1:	83 ec 14             	sub    $0x14,%esp
  return lwip_getaddrname(s, name, namelen, 0);
  801bb4:	6a 00                	push   $0x0
  801bb6:	8b 4d 10             	mov    0x10(%ebp),%ecx
  801bb9:	8b 55 0c             	mov    0xc(%ebp),%edx
  801bbc:	8b 45 08             	mov    0x8(%ebp),%eax
  801bbf:	e8 49 ed ff ff       	call   80090d <lwip_getaddrname>
}
  801bc4:	c9                   	leave  
  801bc5:	c3                   	ret    

00801bc6 <lwip_getsockname>:
{
  801bc6:	55                   	push   %ebp
  801bc7:	89 e5                	mov    %esp,%ebp
  801bc9:	83 ec 14             	sub    $0x14,%esp
  return lwip_getaddrname(s, name, namelen, 1);
  801bcc:	6a 01                	push   $0x1
  801bce:	8b 4d 10             	mov    0x10(%ebp),%ecx
  801bd1:	8b 55 0c             	mov    0xc(%ebp),%edx
  801bd4:	8b 45 08             	mov    0x8(%ebp),%eax
  801bd7:	e8 31 ed ff ff       	call   80090d <lwip_getaddrname>
}
  801bdc:	c9                   	leave  
  801bdd:	c3                   	ret    

00801bde <lwip_getsockopt>:
{
  801bde:	55                   	push   %ebp
  801bdf:	89 e5                	mov    %esp,%ebp
  801be1:	57                   	push   %edi
  801be2:	56                   	push   %esi
  801be3:	53                   	push   %ebx
  801be4:	83 ec 2c             	sub    $0x2c,%esp
  801be7:	8b 75 0c             	mov    0xc(%ebp),%esi
  801bea:	8b 7d 18             	mov    0x18(%ebp),%edi
  struct lwip_socket *sock = get_socket(s);
  801bed:	8b 45 08             	mov    0x8(%ebp),%eax
  801bf0:	e8 df eb ff ff       	call   8007d4 <get_socket>
  if (!sock)
  801bf5:	85 c0                	test   %eax,%eax
  801bf7:	0f 84 a6 01 00 00    	je     801da3 <lwip_getsockopt+0x1c5>
  801bfd:	89 c3                	mov    %eax,%ebx
  if ((NULL == optval) || (NULL == optlen)) {
  801bff:	83 7d 14 00          	cmpl   $0x0,0x14(%ebp)
  801c03:	74 37                	je     801c3c <lwip_getsockopt+0x5e>
  801c05:	85 ff                	test   %edi,%edi
  801c07:	74 33                	je     801c3c <lwip_getsockopt+0x5e>
  switch (level) {
  801c09:	83 fe 06             	cmp    $0x6,%esi
  801c0c:	0f 84 2f 01 00 00    	je     801d41 <lwip_getsockopt+0x163>
  801c12:	81 fe ff 0f 00 00    	cmp    $0xfff,%esi
  801c18:	74 3d                	je     801c57 <lwip_getsockopt+0x79>
  801c1a:	b8 5c 00 00 00       	mov    $0x5c,%eax
  801c1f:	85 f6                	test   %esi,%esi
  801c21:	0f 84 a8 00 00 00    	je     801ccf <lwip_getsockopt+0xf1>
    sock_set_errno(sock, err);
  801c27:	0f be c0             	movsbl %al,%eax
  801c2a:	89 43 10             	mov    %eax,0x10(%ebx)
  801c2d:	a3 34 50 81 00       	mov    %eax,0x815034
    return -1;
  801c32:	b8 ff ff ff ff       	mov    $0xffffffff,%eax
  801c37:	e9 fd 00 00 00       	jmp    801d39 <lwip_getsockopt+0x15b>
    sock_set_errno(sock, EFAULT);
  801c3c:	c7 43 10 0e 00 00 00 	movl   $0xe,0x10(%ebx)
  801c43:	c7 05 34 50 81 00 0e 	movl   $0xe,0x815034
  801c4a:	00 00 00 
    return -1;
  801c4d:	b8 ff ff ff ff       	mov    $0xffffffff,%eax
  801c52:	e9 e2 00 00 00       	jmp    801d39 <lwip_getsockopt+0x15b>
  801c57:	81 7d 10 08 10 00 00 	cmpl   $0x1008,0x10(%ebp)
  801c5e:	7e 34                	jle    801c94 <lwip_getsockopt+0xb6>
  801c60:	b8 5c 00 00 00       	mov    $0x5c,%eax
  801c65:	81 7d 10 0a 10 00 00 	cmpl   $0x100a,0x10(%ebp)
  801c6c:	75 b9                	jne    801c27 <lwip_getsockopt+0x49>
        err = EINVAL;
  801c6e:	83 3f 04             	cmpl   $0x4,(%edi)
  801c71:	19 c0                	sbb    %eax,%eax
  801c73:	83 e0 16             	and    $0x16,%eax
      if ((sock->conn->type != NETCONN_UDP) ||
  801c76:	8b 13                	mov    (%ebx),%edx
  801c78:	83 3a 20             	cmpl   $0x20,(%edx)
  801c7b:	0f 85 f0 00 00 00    	jne    801d71 <lwip_getsockopt+0x193>
          ((udp_flags(sock->conn->pcb.udp) & UDP_FLAGS_UDPLITE) != 0)) {
  801c81:	8b 52 08             	mov    0x8(%edx),%edx
      if ((sock->conn->type != NETCONN_UDP) ||
  801c84:	f6 42 10 02          	testb  $0x2,0x10(%edx)
  801c88:	0f 85 ed 00 00 00    	jne    801d7b <lwip_getsockopt+0x19d>
  if (err != ERR_OK) {
  801c8e:	84 c0                	test   %al,%al
  801c90:	74 55                	je     801ce7 <lwip_getsockopt+0x109>
  801c92:	eb 93                	jmp    801c27 <lwip_getsockopt+0x49>
  801c94:	81 7d 10 06 10 00 00 	cmpl   $0x1006,0x10(%ebp)
  801c9b:	7f 23                	jg     801cc0 <lwip_getsockopt+0xe2>
  801c9d:	8b 45 10             	mov    0x10(%ebp),%eax
  801ca0:	83 e8 02             	sub    $0x2,%eax
  801ca3:	83 f8 1e             	cmp    $0x1e,%eax
  801ca6:	0f 87 bb 00 00 00    	ja     801d67 <lwip_getsockopt+0x189>
  801cac:	ba 41 00 00 40       	mov    $0x40000041,%edx
  801cb1:	0f a3 c2             	bt     %eax,%edx
  801cb4:	72 0a                	jb     801cc0 <lwip_getsockopt+0xe2>
  801cb6:	b8 5c 00 00 00       	mov    $0x5c,%eax
  801cbb:	e9 67 ff ff ff       	jmp    801c27 <lwip_getsockopt+0x49>
      if (*optlen < sizeof(int)) {
  801cc0:	83 3f 03             	cmpl   $0x3,(%edi)
  801cc3:	77 22                	ja     801ce7 <lwip_getsockopt+0x109>
        err = EINVAL;
  801cc5:	b8 16 00 00 00       	mov    $0x16,%eax
  801cca:	e9 58 ff ff ff       	jmp    801c27 <lwip_getsockopt+0x49>
  801ccf:	8b 45 10             	mov    0x10(%ebp),%eax
  801cd2:	83 e8 01             	sub    $0x1,%eax
  801cd5:	83 f8 01             	cmp    $0x1,%eax
  801cd8:	0f 87 a7 00 00 00    	ja     801d85 <lwip_getsockopt+0x1a7>
      if (*optlen < sizeof(int)) {
  801cde:	83 3f 03             	cmpl   $0x3,(%edi)
  801ce1:	0f 86 a8 00 00 00    	jbe    801d8f <lwip_getsockopt+0x1b1>
  data.sock = sock;
  801ce7:	89 5d cc             	mov    %ebx,-0x34(%ebp)
  data.level = level;
  801cea:	89 75 d4             	mov    %esi,-0x2c(%ebp)
  data.optname = optname;
  801ced:	8b 45 10             	mov    0x10(%ebp),%eax
  801cf0:	89 45 d8             	mov    %eax,-0x28(%ebp)
  data.optval = optval;
  801cf3:	8b 45 14             	mov    0x14(%ebp),%eax
  801cf6:	89 45 dc             	mov    %eax,-0x24(%ebp)
  data.optlen = optlen;
  801cf9:	89 7d e0             	mov    %edi,-0x20(%ebp)
  data.err = err;
  801cfc:	c6 45 e4 00          	movb   $0x0,-0x1c(%ebp)
  tcpip_callback(lwip_getsockopt_internal, &data);
  801d00:	83 ec 04             	sub    $0x4,%esp
  801d03:	6a 01                	push   $0x1
  801d05:	8d 45 cc             	lea    -0x34(%ebp),%eax
  801d08:	50                   	push   %eax
  801d09:	68 ff 0b 80 00       	push   $0x800bff
  801d0e:	e8 d1 05 00 00       	call   8022e4 <tcpip_callback_with_block>
  sys_arch_sem_wait(sock->conn->op_completed, 0);
  801d13:	83 c4 08             	add    $0x8,%esp
  801d16:	6a 00                	push   $0x0
  801d18:	8b 03                	mov    (%ebx),%eax
  801d1a:	ff 70 10             	push   0x10(%eax)
  801d1d:	e8 6f 83 00 00       	call   80a091 <sys_arch_sem_wait>
  err = data.err;
  801d22:	0f b6 45 e4          	movzbl -0x1c(%ebp),%eax
  sock_set_errno(sock, err);
  801d26:	0f be d0             	movsbl %al,%edx
  801d29:	89 53 10             	mov    %edx,0x10(%ebx)
  801d2c:	89 15 34 50 81 00    	mov    %edx,0x815034
  return err ? -1 : 0;
  801d32:	83 c4 10             	add    $0x10,%esp
  801d35:	f6 d8                	neg    %al
  801d37:	19 c0                	sbb    %eax,%eax
}
  801d39:	8d 65 f4             	lea    -0xc(%ebp),%esp
  801d3c:	5b                   	pop    %ebx
  801d3d:	5e                   	pop    %esi
  801d3e:	5f                   	pop    %edi
  801d3f:	5d                   	pop    %ebp
  801d40:	c3                   	ret    
    if (*optlen < sizeof(int)) {
  801d41:	83 3f 03             	cmpl   $0x3,(%edi)
  801d44:	76 53                	jbe    801d99 <lwip_getsockopt+0x1bb>
    if (sock->conn->type != NETCONN_TCP)
  801d46:	8b 10                	mov    (%eax),%edx
      return 0;
  801d48:	b8 00 00 00 00       	mov    $0x0,%eax
    if (sock->conn->type != NETCONN_TCP)
  801d4d:	83 3a 10             	cmpl   $0x10,(%edx)
  801d50:	75 e7                	jne    801d39 <lwip_getsockopt+0x15b>
  801d52:	8b 45 10             	mov    0x10(%ebp),%eax
  801d55:	83 e8 01             	sub    $0x1,%eax
  801d58:	83 f8 01             	cmp    $0x1,%eax
  801d5b:	76 8a                	jbe    801ce7 <lwip_getsockopt+0x109>
      err = ENOPROTOOPT;
  801d5d:	b8 5c 00 00 00       	mov    $0x5c,%eax
  801d62:	e9 c0 fe ff ff       	jmp    801c27 <lwip_getsockopt+0x49>
  801d67:	b8 5c 00 00 00       	mov    $0x5c,%eax
  801d6c:	e9 b6 fe ff ff       	jmp    801c27 <lwip_getsockopt+0x49>
        err = EAFNOSUPPORT;
  801d71:	b8 61 00 00 00       	mov    $0x61,%eax
  801d76:	e9 ac fe ff ff       	jmp    801c27 <lwip_getsockopt+0x49>
  801d7b:	b8 61 00 00 00       	mov    $0x61,%eax
  801d80:	e9 a2 fe ff ff       	jmp    801c27 <lwip_getsockopt+0x49>
      err = ENOPROTOOPT;
  801d85:	b8 5c 00 00 00       	mov    $0x5c,%eax
  801d8a:	e9 98 fe ff ff       	jmp    801c27 <lwip_getsockopt+0x49>
        err = EINVAL;
  801d8f:	b8 16 00 00 00       	mov    $0x16,%eax
  801d94:	e9 8e fe ff ff       	jmp    801c27 <lwip_getsockopt+0x49>
      err = EINVAL;
  801d99:	b8 16 00 00 00       	mov    $0x16,%eax
  801d9e:	e9 84 fe ff ff       	jmp    801c27 <lwip_getsockopt+0x49>
    return -1;
  801da3:	b8 ff ff ff ff       	mov    $0xffffffff,%eax
  801da8:	eb 8f                	jmp    801d39 <lwip_getsockopt+0x15b>

00801daa <lwip_setsockopt>:
{
  801daa:	55                   	push   %ebp
  801dab:	89 e5                	mov    %esp,%ebp
  801dad:	57                   	push   %edi
  801dae:	56                   	push   %esi
  801daf:	53                   	push   %ebx
  801db0:	83 ec 2c             	sub    $0x2c,%esp
  801db3:	8b 75 0c             	mov    0xc(%ebp),%esi
  801db6:	8b 7d 14             	mov    0x14(%ebp),%edi
  struct lwip_socket *sock = get_socket(s);
  801db9:	8b 45 08             	mov    0x8(%ebp),%eax
  801dbc:	e8 13 ea ff ff       	call   8007d4 <get_socket>
  if (!sock)
  801dc1:	85 c0                	test   %eax,%eax
  801dc3:	0f 84 63 01 00 00    	je     801f2c <lwip_setsockopt+0x182>
  801dc9:	89 c3                	mov    %eax,%ebx
  if (NULL == optval) {
  801dcb:	85 ff                	test   %edi,%edi
  801dcd:	74 2c                	je     801dfb <lwip_setsockopt+0x51>
  switch (level) {
  801dcf:	83 fe 06             	cmp    $0x6,%esi
  801dd2:	0f 84 fb 00 00 00    	je     801ed3 <lwip_setsockopt+0x129>
  801dd8:	81 fe ff 0f 00 00    	cmp    $0xfff,%esi
  801dde:	74 36                	je     801e16 <lwip_setsockopt+0x6c>
  801de0:	b8 5c 00 00 00       	mov    $0x5c,%eax
  801de5:	85 f6                	test   %esi,%esi
  801de7:	74 7b                	je     801e64 <lwip_setsockopt+0xba>
    sock_set_errno(sock, err);
  801de9:	89 43 10             	mov    %eax,0x10(%ebx)
  801dec:	a3 34 50 81 00       	mov    %eax,0x815034
    return -1;
  801df1:	b8 ff ff ff ff       	mov    $0xffffffff,%eax
  801df6:	e9 d0 00 00 00       	jmp    801ecb <lwip_setsockopt+0x121>
    sock_set_errno(sock, EFAULT);
  801dfb:	c7 40 10 0e 00 00 00 	movl   $0xe,0x10(%eax)
  801e02:	c7 05 34 50 81 00 0e 	movl   $0xe,0x815034
  801e09:	00 00 00 
    return -1;
  801e0c:	b8 ff ff ff ff       	mov    $0xffffffff,%eax
  801e11:	e9 b5 00 00 00       	jmp    801ecb <lwip_setsockopt+0x121>
  801e16:	83 7d 10 20          	cmpl   $0x20,0x10(%ebp)
  801e1a:	74 14                	je     801e30 <lwip_setsockopt+0x86>
  801e1c:	81 7d 10 0a 10 00 00 	cmpl   $0x100a,0x10(%ebp)
  801e23:	74 18                	je     801e3d <lwip_setsockopt+0x93>
  801e25:	b8 5c 00 00 00       	mov    $0x5c,%eax
  801e2a:	83 7d 10 08          	cmpl   $0x8,0x10(%ebp)
  801e2e:	75 b9                	jne    801de9 <lwip_setsockopt+0x3f>
      if (optlen < sizeof(int)) {
  801e30:	83 7d 18 03          	cmpl   $0x3,0x18(%ebp)
  801e34:	77 47                	ja     801e7d <lwip_setsockopt+0xd3>
        err = EINVAL;
  801e36:	b8 16 00 00 00       	mov    $0x16,%eax
  801e3b:	eb ac                	jmp    801de9 <lwip_setsockopt+0x3f>
        err = EINVAL;
  801e3d:	83 7d 18 04          	cmpl   $0x4,0x18(%ebp)
  801e41:	19 c0                	sbb    %eax,%eax
  801e43:	83 e0 16             	and    $0x16,%eax
      if ((sock->conn->type != NETCONN_UDP) ||
  801e46:	8b 13                	mov    (%ebx),%edx
  801e48:	83 3a 20             	cmpl   $0x20,(%edx)
  801e4b:	0f 85 a9 00 00 00    	jne    801efa <lwip_setsockopt+0x150>
          ((udp_flags(sock->conn->pcb.udp) & UDP_FLAGS_UDPLITE) != 0)) {
  801e51:	8b 52 08             	mov    0x8(%edx),%edx
      if ((sock->conn->type != NETCONN_UDP) ||
  801e54:	f6 42 10 02          	testb  $0x2,0x10(%edx)
  801e58:	0f 85 a6 00 00 00    	jne    801f04 <lwip_setsockopt+0x15a>
  if (err != ERR_OK) {
  801e5e:	85 c0                	test   %eax,%eax
  801e60:	74 1b                	je     801e7d <lwip_setsockopt+0xd3>
  801e62:	eb 85                	jmp    801de9 <lwip_setsockopt+0x3f>
  801e64:	8b 45 10             	mov    0x10(%ebp),%eax
  801e67:	83 e8 01             	sub    $0x1,%eax
  801e6a:	83 f8 01             	cmp    $0x1,%eax
  801e6d:	0f 87 9b 00 00 00    	ja     801f0e <lwip_setsockopt+0x164>
      if (optlen < sizeof(int)) {
  801e73:	83 7d 18 03          	cmpl   $0x3,0x18(%ebp)
  801e77:	0f 86 9b 00 00 00    	jbe    801f18 <lwip_setsockopt+0x16e>
  data.sock = sock;
  801e7d:	89 5d cc             	mov    %ebx,-0x34(%ebp)
  data.level = level;
  801e80:	89 75 d4             	mov    %esi,-0x2c(%ebp)
  data.optname = optname;
  801e83:	8b 45 10             	mov    0x10(%ebp),%eax
  801e86:	89 45 d8             	mov    %eax,-0x28(%ebp)
  data.optval = (void*)optval;
  801e89:	89 7d dc             	mov    %edi,-0x24(%ebp)
  data.optlen = &optlen;
  801e8c:	8d 45 18             	lea    0x18(%ebp),%eax
  801e8f:	89 45 e0             	mov    %eax,-0x20(%ebp)
  data.err = err;
  801e92:	c6 45 e4 00          	movb   $0x0,-0x1c(%ebp)
  tcpip_callback(lwip_setsockopt_internal, &data);
  801e96:	83 ec 04             	sub    $0x4,%esp
  801e99:	6a 01                	push   $0x1
  801e9b:	8d 45 cc             	lea    -0x34(%ebp),%eax
  801e9e:	50                   	push   %eax
  801e9f:	68 84 0d 80 00       	push   $0x800d84
  801ea4:	e8 3b 04 00 00       	call   8022e4 <tcpip_callback_with_block>
  sys_arch_sem_wait(sock->conn->op_completed, 0);
  801ea9:	83 c4 08             	add    $0x8,%esp
  801eac:	6a 00                	push   $0x0
  801eae:	8b 03                	mov    (%ebx),%eax
  801eb0:	ff 70 10             	push   0x10(%eax)
  801eb3:	e8 d9 81 00 00       	call   80a091 <sys_arch_sem_wait>
  err = data.err;
  801eb8:	0f be 45 e4          	movsbl -0x1c(%ebp),%eax
  sock_set_errno(sock, err);
  801ebc:	89 43 10             	mov    %eax,0x10(%ebx)
  801ebf:	a3 34 50 81 00       	mov    %eax,0x815034
  return err ? -1 : 0;
  801ec4:	83 c4 10             	add    $0x10,%esp
  801ec7:	f7 d8                	neg    %eax
  801ec9:	19 c0                	sbb    %eax,%eax
}
  801ecb:	8d 65 f4             	lea    -0xc(%ebp),%esp
  801ece:	5b                   	pop    %ebx
  801ecf:	5e                   	pop    %esi
  801ed0:	5f                   	pop    %edi
  801ed1:	5d                   	pop    %ebp
  801ed2:	c3                   	ret    
    if (optlen < sizeof(int)) {
  801ed3:	83 7d 18 03          	cmpl   $0x3,0x18(%ebp)
  801ed7:	76 49                	jbe    801f22 <lwip_setsockopt+0x178>
    if (sock->conn->type != NETCONN_TCP)
  801ed9:	8b 10                	mov    (%eax),%edx
      return 0;
  801edb:	b8 00 00 00 00       	mov    $0x0,%eax
    if (sock->conn->type != NETCONN_TCP)
  801ee0:	83 3a 10             	cmpl   $0x10,(%edx)
  801ee3:	75 e6                	jne    801ecb <lwip_setsockopt+0x121>
  801ee5:	8b 45 10             	mov    0x10(%ebp),%eax
  801ee8:	83 e8 01             	sub    $0x1,%eax
  801eeb:	83 f8 01             	cmp    $0x1,%eax
  801eee:	76 8d                	jbe    801e7d <lwip_setsockopt+0xd3>
      err = ENOPROTOOPT;
  801ef0:	b8 5c 00 00 00       	mov    $0x5c,%eax
  801ef5:	e9 ef fe ff ff       	jmp    801de9 <lwip_setsockopt+0x3f>
        err = EAFNOSUPPORT;
  801efa:	b8 61 00 00 00       	mov    $0x61,%eax
  801eff:	e9 e5 fe ff ff       	jmp    801de9 <lwip_setsockopt+0x3f>
  801f04:	b8 61 00 00 00       	mov    $0x61,%eax
  801f09:	e9 db fe ff ff       	jmp    801de9 <lwip_setsockopt+0x3f>
        err = ENOPROTOOPT;
  801f0e:	b8 5c 00 00 00       	mov    $0x5c,%eax
  801f13:	e9 d1 fe ff ff       	jmp    801de9 <lwip_setsockopt+0x3f>
        err = EINVAL;
  801f18:	b8 16 00 00 00       	mov    $0x16,%eax
  801f1d:	e9 c7 fe ff ff       	jmp    801de9 <lwip_setsockopt+0x3f>
      err = EINVAL;
  801f22:	b8 16 00 00 00       	mov    $0x16,%eax
  801f27:	e9 bd fe ff ff       	jmp    801de9 <lwip_setsockopt+0x3f>
    return -1;
  801f2c:	b8 ff ff ff ff       	mov    $0xffffffff,%eax
  801f31:	eb 98                	jmp    801ecb <lwip_setsockopt+0x121>

00801f33 <lwip_ioctl>:

int
lwip_ioctl(int s, long cmd, void *argp)
{
  801f33:	55                   	push   %ebp
  801f34:	89 e5                	mov    %esp,%ebp
  801f36:	56                   	push   %esi
  801f37:	53                   	push   %ebx
  801f38:	8b 5d 0c             	mov    0xc(%ebp),%ebx
  801f3b:	8b 75 10             	mov    0x10(%ebp),%esi
  struct lwip_socket *sock = get_socket(s);
  801f3e:	8b 45 08             	mov    0x8(%ebp),%eax
  801f41:	e8 8e e8 ff ff       	call   8007d4 <get_socket>
  u16_t buflen = 0;

  if (!sock)
  801f46:	85 c0                	test   %eax,%eax
  801f48:	0f 84 b4 00 00 00    	je     802002 <lwip_ioctl+0xcf>
    return -1;

  switch (cmd) {
  801f4e:	81 fb 7e 66 04 80    	cmp    $0x8004667e,%ebx
  801f54:	74 5d                	je     801fb3 <lwip_ioctl+0x80>
  801f56:	81 fb 7f 66 04 40    	cmp    $0x4004667f,%ebx
  801f5c:	0f 85 88 00 00 00    	jne    801fea <lwip_ioctl+0xb7>
  case FIONREAD:
    if (!argp) {
  801f62:	85 f6                	test   %esi,%esi
  801f64:	74 35                	je     801f9b <lwip_ioctl+0x68>
      sock_set_errno(sock, EINVAL);
      return -1;
    }

    SYS_ARCH_GET(sock->conn->recv_avail, *((u16_t*)argp));
  801f66:	8b 10                	mov    (%eax),%edx
  801f68:	0f b7 52 20          	movzwl 0x20(%edx),%edx
  801f6c:	66 89 16             	mov    %dx,(%esi)

    /* Check if there is data left from the last recv operation. /maq 041215 */
    if (sock->lastdata) {
  801f6f:	8b 48 04             	mov    0x4(%eax),%ecx
  801f72:	85 c9                	test   %ecx,%ecx
  801f74:	74 0d                	je     801f83 <lwip_ioctl+0x50>
      buflen = netbuf_len(sock->lastdata);
  801f76:	8b 09                	mov    (%ecx),%ecx
      buflen -= sock->lastoffset;

      *((u16_t*)argp) += buflen;
  801f78:	66 2b 50 08          	sub    0x8(%eax),%dx
  801f7c:	66 03 51 08          	add    0x8(%ecx),%dx
  801f80:	66 89 16             	mov    %dx,(%esi)
    }

    LWIP_DEBUGF(SOCKETS_DEBUG, ("lwip_ioctl(%d, FIONREAD, %p) = %u\n", s, argp, *((u16_t*)argp)));
    sock_set_errno(sock, 0);
  801f83:	c7 40 10 00 00 00 00 	movl   $0x0,0x10(%eax)
  801f8a:	c7 05 34 50 81 00 00 	movl   $0x0,0x815034
  801f91:	00 00 00 
    return 0;
  801f94:	b8 00 00 00 00       	mov    $0x0,%eax
  801f99:	eb 4b                	jmp    801fe6 <lwip_ioctl+0xb3>
      sock_set_errno(sock, EINVAL);
  801f9b:	c7 40 10 16 00 00 00 	movl   $0x16,0x10(%eax)
  801fa2:	c7 05 34 50 81 00 16 	movl   $0x16,0x815034
  801fa9:	00 00 00 
      return -1;
  801fac:	b8 ff ff ff ff       	mov    $0xffffffff,%eax
  801fb1:	eb 33                	jmp    801fe6 <lwip_ioctl+0xb3>

  case FIONBIO:
    if (argp && *(u32_t*)argp)
  801fb3:	85 f6                	test   %esi,%esi
  801fb5:	74 0e                	je     801fc5 <lwip_ioctl+0x92>
  801fb7:	83 3e 00             	cmpl   $0x0,(%esi)
  801fba:	74 09                	je     801fc5 <lwip_ioctl+0x92>
      sock->flags |= O_NONBLOCK;
  801fbc:	0f b7 50 0e          	movzwl 0xe(%eax),%edx
  801fc0:	80 ce 08             	or     $0x8,%dh
  801fc3:	eb 07                	jmp    801fcc <lwip_ioctl+0x99>
    else
      sock->flags &= ~O_NONBLOCK;
  801fc5:	0f b7 50 0e          	movzwl 0xe(%eax),%edx
  801fc9:	80 e6 f7             	and    $0xf7,%dh
  801fcc:	66 89 50 0e          	mov    %dx,0xe(%eax)
    LWIP_DEBUGF(SOCKETS_DEBUG, ("lwip_ioctl(%d, FIONBIO, %d)\n", s, !!(sock->flags & O_NONBLOCK)));
    sock_set_errno(sock, 0);
  801fd0:	c7 40 10 00 00 00 00 	movl   $0x0,0x10(%eax)
  801fd7:	c7 05 34 50 81 00 00 	movl   $0x0,0x815034
  801fde:	00 00 00 
    return 0;
  801fe1:	b8 00 00 00 00       	mov    $0x0,%eax
  default:
    LWIP_DEBUGF(SOCKETS_DEBUG, ("lwip_ioctl(%d, UNIMPL: 0x%lx, %p)\n", s, cmd, argp));
    sock_set_errno(sock, ENOSYS); /* not yet implemented */
    return -1;
  } /* switch (cmd) */
}
  801fe6:	5b                   	pop    %ebx
  801fe7:	5e                   	pop    %esi
  801fe8:	5d                   	pop    %ebp
  801fe9:	c3                   	ret    
    sock_set_errno(sock, ENOSYS); /* not yet implemented */
  801fea:	c7 40 10 26 00 00 00 	movl   $0x26,0x10(%eax)
  801ff1:	c7 05 34 50 81 00 26 	movl   $0x26,0x815034
  801ff8:	00 00 00 
    return -1;
  801ffb:	b8 ff ff ff ff       	mov    $0xffffffff,%eax
  802000:	eb e4                	jmp    801fe6 <lwip_ioctl+0xb3>
    return -1;
  802002:	b8 ff ff ff ff       	mov    $0xffffffff,%eax
  802007:	eb dd                	jmp    801fe6 <lwip_ioctl+0xb3>

00802009 <tcpip_tcp_timer>:
 *
 * @param arg unused argument
 */
static void
tcpip_tcp_timer(void *arg)
{
  802009:	55                   	push   %ebp
  80200a:	89 e5                	mov    %esp,%ebp
  80200c:	83 ec 08             	sub    $0x8,%esp
  LWIP_UNUSED_ARG(arg);

  /* call TCP timer handler */
  tcp_tmr();
  80200f:	e8 ab 40 00 00       	call   8060bf <tcp_tmr>
  /* timer still needed? */
  if (tcp_active_pcbs || tcp_tw_pcbs) {
  802014:	83 3d 4c 44 b3 00 00 	cmpl   $0x0,0xb3444c
  80201b:	74 19                	je     802036 <tcpip_tcp_timer+0x2d>
    /* restart timer */
    sys_timeout(TCP_TMR_INTERVAL, tcpip_tcp_timer, NULL);
  80201d:	83 ec 04             	sub    $0x4,%esp
  802020:	6a 00                	push   $0x0
  802022:	68 09 20 80 00       	push   $0x802009
  802027:	68 fa 00 00 00       	push   $0xfa
  80202c:	e8 64 31 00 00       	call   805195 <sys_timeout>
  802031:	83 c4 10             	add    $0x10,%esp
  } else {
    /* disable timer */
    tcpip_tcp_timer_active = 0;
  }
}
  802034:	c9                   	leave  
  802035:	c3                   	ret    
  if (tcp_active_pcbs || tcp_tw_pcbs) {
  802036:	83 3d 48 44 b3 00 00 	cmpl   $0x0,0xb34448
  80203d:	75 de                	jne    80201d <tcpip_tcp_timer+0x14>
    tcpip_tcp_timer_active = 0;
  80203f:	c7 05 20 53 81 00 00 	movl   $0x0,0x815320
  802046:	00 00 00 
}
  802049:	eb e9                	jmp    802034 <tcpip_tcp_timer+0x2b>

0080204b <tcpip_thread>:
 *
 * @param arg unused argument
 */
static void
tcpip_thread(void *arg)
{
  80204b:	55                   	push   %ebp
  80204c:	89 e5                	mov    %esp,%ebp
  80204e:	53                   	push   %ebx
  80204f:	83 ec 18             	sub    $0x18,%esp
  struct tcpip_msg *msg;
  LWIP_UNUSED_ARG(arg);

#if IP_REASSEMBLY
  sys_timeout(IP_TMR_INTERVAL, ip_reass_timer, NULL);
  802052:	6a 00                	push   $0x0
  802054:	68 fc 21 80 00       	push   $0x8021fc
  802059:	68 e8 03 00 00       	push   $0x3e8
  80205e:	e8 32 31 00 00       	call   805195 <sys_timeout>
#endif /* IP_REASSEMBLY */
#if LWIP_ARP
  sys_timeout(ARP_TMR_INTERVAL, arp_timer, NULL);
  802063:	83 c4 0c             	add    $0xc,%esp
  802066:	6a 00                	push   $0x0
  802068:	68 d8 21 80 00       	push   $0x8021d8
  80206d:	68 88 13 00 00       	push   $0x1388
  802072:	e8 1e 31 00 00       	call   805195 <sys_timeout>
#endif /* LWIP_ARP */
#if LWIP_DHCP
  sys_timeout(DHCP_COARSE_TIMER_MSECS, dhcp_timer_coarse, NULL);
  802077:	83 c4 0c             	add    $0xc,%esp
  80207a:	6a 00                	push   $0x0
  80207c:	68 b4 21 80 00       	push   $0x8021b4
  802081:	68 60 ea 00 00       	push   $0xea60
  802086:	e8 0a 31 00 00       	call   805195 <sys_timeout>
  sys_timeout(DHCP_FINE_TIMER_MSECS, dhcp_timer_fine, NULL);
  80208b:	83 c4 0c             	add    $0xc,%esp
  80208e:	6a 00                	push   $0x0
  802090:	68 90 21 80 00       	push   $0x802190
  802095:	68 f4 01 00 00       	push   $0x1f4
  80209a:	e8 f6 30 00 00       	call   805195 <sys_timeout>
#endif /* LWIP_IGMP */
#if LWIP_DNS
  sys_timeout(DNS_TMR_INTERVAL, dns_timer, NULL);
#endif /* LWIP_DNS */

  if (tcpip_init_done != NULL) {
  80209f:	a1 28 53 81 00       	mov    0x815328,%eax
  8020a4:	83 c4 10             	add    $0x10,%esp
  8020a7:	85 c0                	test   %eax,%eax
  8020a9:	74 0e                	je     8020b9 <tcpip_thread+0x6e>
    tcpip_init_done(tcpip_init_done_arg);
  8020ab:	83 ec 0c             	sub    $0xc,%esp
  8020ae:	ff 35 24 53 81 00    	push   0x815324
  8020b4:	ff d0                	call   *%eax
  8020b6:	83 c4 10             	add    $0x10,%esp
  }

  LOCK_TCPIP_CORE();
  while (1) {                          /* MAIN Loop */
    sys_mbox_fetch(mbox, (void *)&msg);
  8020b9:	8d 5d f4             	lea    -0xc(%ebp),%ebx
  8020bc:	eb 44                	jmp    802102 <tcpip_thread+0xb7>
    switch (msg->type) {
  8020be:	83 f8 03             	cmp    $0x3,%eax
  8020c1:	75 3f                	jne    802102 <tcpip_thread+0xb7>
      break;

    case TCPIP_MSG_TIMEOUT:
      LWIP_DEBUGF(TCPIP_DEBUG, ("tcpip_thread: TIMEOUT %p\n", (void *)msg));

      if(msg->msg.tmo.msecs != 0xffffffff)
  8020c3:	8b 42 08             	mov    0x8(%edx),%eax
  8020c6:	83 f8 ff             	cmp    $0xffffffff,%eax
  8020c9:	0f 84 ab 00 00 00    	je     80217a <tcpip_thread+0x12f>
        sys_timeout (msg->msg.tmo.msecs, msg->msg.tmo.h, msg->msg.tmo.arg);
  8020cf:	83 ec 04             	sub    $0x4,%esp
  8020d2:	ff 72 10             	push   0x10(%edx)
  8020d5:	ff 72 0c             	push   0xc(%edx)
  8020d8:	50                   	push   %eax
  8020d9:	e8 b7 30 00 00       	call   805195 <sys_timeout>
  8020de:	83 c4 10             	add    $0x10,%esp
      else
        sys_untimeout (msg->msg.tmo.h, msg->msg.tmo.arg);
      memp_free(MEMP_TCPIP_MSG_API, msg);
  8020e1:	83 ec 08             	sub    $0x8,%esp
  8020e4:	ff 75 f4             	push   -0xc(%ebp)
  8020e7:	6a 08                	push   $0x8
  8020e9:	e8 0d 24 00 00       	call   8044fb <memp_free>
      break;
  8020ee:	83 c4 10             	add    $0x10,%esp
  8020f1:	eb 0f                	jmp    802102 <tcpip_thread+0xb7>
      msg->msg.apimsg->function(&(msg->msg.apimsg->msg));
  8020f3:	8b 42 08             	mov    0x8(%edx),%eax
  8020f6:	83 ec 0c             	sub    $0xc,%esp
  8020f9:	8d 50 04             	lea    0x4(%eax),%edx
  8020fc:	52                   	push   %edx
  8020fd:	ff 10                	call   *(%eax)
      break;
  8020ff:	83 c4 10             	add    $0x10,%esp
    sys_mbox_fetch(mbox, (void *)&msg);
  802102:	83 ec 08             	sub    $0x8,%esp
  802105:	53                   	push   %ebx
  802106:	ff 35 00 40 81 00    	push   0x814000
  80210c:	e8 64 2f 00 00       	call   805075 <sys_mbox_fetch>
    switch (msg->type) {
  802111:	8b 55 f4             	mov    -0xc(%ebp),%edx
  802114:	8b 02                	mov    (%edx),%eax
  802116:	83 c4 10             	add    $0x10,%esp
  802119:	83 f8 02             	cmp    $0x2,%eax
  80211c:	74 41                	je     80215f <tcpip_thread+0x114>
  80211e:	77 9e                	ja     8020be <tcpip_thread+0x73>
  802120:	85 c0                	test   %eax,%eax
  802122:	74 cf                	je     8020f3 <tcpip_thread+0xa8>
      if (msg->msg.inp.netif->flags & NETIF_FLAG_ETHARP) {
  802124:	8b 42 0c             	mov    0xc(%edx),%eax
  802127:	f6 40 2e 20          	testb  $0x20,0x2e(%eax)
  80212b:	74 21                	je     80214e <tcpip_thread+0x103>
        ethernet_input(msg->msg.inp.p, msg->msg.inp.netif);
  80212d:	83 ec 08             	sub    $0x8,%esp
  802130:	50                   	push   %eax
  802131:	ff 72 08             	push   0x8(%edx)
  802134:	e8 6e 7a 00 00       	call   809ba7 <ethernet_input>
  802139:	83 c4 10             	add    $0x10,%esp
      memp_free(MEMP_TCPIP_MSG_INPKT, msg);
  80213c:	83 ec 08             	sub    $0x8,%esp
  80213f:	ff 75 f4             	push   -0xc(%ebp)
  802142:	6a 09                	push   $0x9
  802144:	e8 b2 23 00 00       	call   8044fb <memp_free>
      break;
  802149:	83 c4 10             	add    $0x10,%esp
  80214c:	eb b4                	jmp    802102 <tcpip_thread+0xb7>
      { ip_input(msg->msg.inp.p, msg->msg.inp.netif);
  80214e:	83 ec 08             	sub    $0x8,%esp
  802151:	50                   	push   %eax
  802152:	ff 72 08             	push   0x8(%edx)
  802155:	e8 92 43 00 00       	call   8064ec <ip_input>
  80215a:	83 c4 10             	add    $0x10,%esp
  80215d:	eb dd                	jmp    80213c <tcpip_thread+0xf1>
      msg->msg.cb.f(msg->msg.cb.ctx);
  80215f:	83 ec 0c             	sub    $0xc,%esp
  802162:	ff 72 0c             	push   0xc(%edx)
  802165:	ff 52 08             	call   *0x8(%edx)
      memp_free(MEMP_TCPIP_MSG_API, msg);
  802168:	83 c4 08             	add    $0x8,%esp
  80216b:	ff 75 f4             	push   -0xc(%ebp)
  80216e:	6a 08                	push   $0x8
  802170:	e8 86 23 00 00       	call   8044fb <memp_free>
      break;
  802175:	83 c4 10             	add    $0x10,%esp
  802178:	eb 88                	jmp    802102 <tcpip_thread+0xb7>
        sys_untimeout (msg->msg.tmo.h, msg->msg.tmo.arg);
  80217a:	83 ec 08             	sub    $0x8,%esp
  80217d:	ff 72 10             	push   0x10(%edx)
  802180:	ff 72 0c             	push   0xc(%edx)
  802183:	e8 ca 30 00 00       	call   805252 <sys_untimeout>
  802188:	83 c4 10             	add    $0x10,%esp
  80218b:	e9 51 ff ff ff       	jmp    8020e1 <tcpip_thread+0x96>

00802190 <dhcp_timer_fine>:
{
  802190:	55                   	push   %ebp
  802191:	89 e5                	mov    %esp,%ebp
  802193:	83 ec 08             	sub    $0x8,%esp
  dhcp_fine_tmr();
  802196:	e8 30 1b 00 00       	call   803ccb <dhcp_fine_tmr>
  sys_timeout(DHCP_FINE_TIMER_MSECS, dhcp_timer_fine, NULL);
  80219b:	83 ec 04             	sub    $0x4,%esp
  80219e:	6a 00                	push   $0x0
  8021a0:	68 90 21 80 00       	push   $0x802190
  8021a5:	68 f4 01 00 00       	push   $0x1f4
  8021aa:	e8 e6 2f 00 00       	call   805195 <sys_timeout>
}
  8021af:	83 c4 10             	add    $0x10,%esp
  8021b2:	c9                   	leave  
  8021b3:	c3                   	ret    

008021b4 <dhcp_timer_coarse>:
{
  8021b4:	55                   	push   %ebp
  8021b5:	89 e5                	mov    %esp,%ebp
  8021b7:	83 ec 08             	sub    $0x8,%esp
  dhcp_coarse_tmr();
  8021ba:	e8 41 19 00 00       	call   803b00 <dhcp_coarse_tmr>
  sys_timeout(DHCP_COARSE_TIMER_MSECS, dhcp_timer_coarse, NULL);
  8021bf:	83 ec 04             	sub    $0x4,%esp
  8021c2:	6a 00                	push   $0x0
  8021c4:	68 b4 21 80 00       	push   $0x8021b4
  8021c9:	68 60 ea 00 00       	push   $0xea60
  8021ce:	e8 c2 2f 00 00       	call   805195 <sys_timeout>
}
  8021d3:	83 c4 10             	add    $0x10,%esp
  8021d6:	c9                   	leave  
  8021d7:	c3                   	ret    

008021d8 <arp_timer>:
{
  8021d8:	55                   	push   %ebp
  8021d9:	89 e5                	mov    %esp,%ebp
  8021db:	83 ec 08             	sub    $0x8,%esp
  etharp_tmr();
  8021de:	e8 8b 72 00 00       	call   80946e <etharp_tmr>
  sys_timeout(ARP_TMR_INTERVAL, arp_timer, NULL);
  8021e3:	83 ec 04             	sub    $0x4,%esp
  8021e6:	6a 00                	push   $0x0
  8021e8:	68 d8 21 80 00       	push   $0x8021d8
  8021ed:	68 88 13 00 00       	push   $0x1388
  8021f2:	e8 9e 2f 00 00       	call   805195 <sys_timeout>
}
  8021f7:	83 c4 10             	add    $0x10,%esp
  8021fa:	c9                   	leave  
  8021fb:	c3                   	ret    

008021fc <ip_reass_timer>:
{
  8021fc:	55                   	push   %ebp
  8021fd:	89 e5                	mov    %esp,%ebp
  8021ff:	83 ec 08             	sub    $0x8,%esp
  ip_reass_tmr();
  802202:	e8 be 49 00 00       	call   806bc5 <ip_reass_tmr>
  sys_timeout(IP_TMR_INTERVAL, ip_reass_timer, NULL);
  802207:	83 ec 04             	sub    $0x4,%esp
  80220a:	6a 00                	push   $0x0
  80220c:	68 fc 21 80 00       	push   $0x8021fc
  802211:	68 e8 03 00 00       	push   $0x3e8
  802216:	e8 7a 2f 00 00       	call   805195 <sys_timeout>
}
  80221b:	83 c4 10             	add    $0x10,%esp
  80221e:	c9                   	leave  
  80221f:	c3                   	ret    

00802220 <pbuf_free_int>:
 *
 * @param p The pbuf (chain) to be dereferenced.
 */
static void
pbuf_free_int(void *p)
{
  802220:	55                   	push   %ebp
  802221:	89 e5                	mov    %esp,%ebp
  802223:	83 ec 14             	sub    $0x14,%esp
  struct pbuf *q = p;
  pbuf_free(q);
  802226:	ff 75 08             	push   0x8(%ebp)
  802229:	e8 1e 26 00 00       	call   80484c <pbuf_free>
}
  80222e:	83 c4 10             	add    $0x10,%esp
  802231:	c9                   	leave  
  802232:	c3                   	ret    

00802233 <tcp_timer_needed>:
  if (!tcpip_tcp_timer_active && (tcp_active_pcbs || tcp_tw_pcbs)) {
  802233:	83 3d 20 53 81 00 00 	cmpl   $0x0,0x815320
  80223a:	75 38                	jne    802274 <tcp_timer_needed+0x41>
  80223c:	83 3d 4c 44 b3 00 00 	cmpl   $0x0,0xb3444c
  802243:	74 26                	je     80226b <tcp_timer_needed+0x38>
{
  802245:	55                   	push   %ebp
  802246:	89 e5                	mov    %esp,%ebp
  802248:	83 ec 0c             	sub    $0xc,%esp
    tcpip_tcp_timer_active = 1;
  80224b:	c7 05 20 53 81 00 01 	movl   $0x1,0x815320
  802252:	00 00 00 
    sys_timeout(TCP_TMR_INTERVAL, tcpip_tcp_timer, NULL);
  802255:	6a 00                	push   $0x0
  802257:	68 09 20 80 00       	push   $0x802009
  80225c:	68 fa 00 00 00       	push   $0xfa
  802261:	e8 2f 2f 00 00       	call   805195 <sys_timeout>
  802266:	83 c4 10             	add    $0x10,%esp
}
  802269:	c9                   	leave  
  80226a:	c3                   	ret    
  if (!tcpip_tcp_timer_active && (tcp_active_pcbs || tcp_tw_pcbs)) {
  80226b:	83 3d 48 44 b3 00 00 	cmpl   $0x0,0xb34448
  802272:	75 d1                	jne    802245 <tcp_timer_needed+0x12>
  802274:	c3                   	ret    

00802275 <tcpip_input>:
  if (mbox != SYS_MBOX_NULL) {
  802275:	83 3d 00 40 81 00 ff 	cmpl   $0xffffffff,0x814000
  80227c:	74 59                	je     8022d7 <tcpip_input+0x62>
{
  80227e:	55                   	push   %ebp
  80227f:	89 e5                	mov    %esp,%ebp
  802281:	53                   	push   %ebx
  802282:	83 ec 10             	sub    $0x10,%esp
    msg = memp_malloc(MEMP_TCPIP_MSG_INPKT);
  802285:	6a 09                	push   $0x9
  802287:	e8 19 22 00 00       	call   8044a5 <memp_malloc>
  80228c:	89 c3                	mov    %eax,%ebx
    if (msg == NULL) {
  80228e:	83 c4 10             	add    $0x10,%esp
  802291:	85 c0                	test   %eax,%eax
  802293:	74 48                	je     8022dd <tcpip_input+0x68>
    msg->type = TCPIP_MSG_INPKT;
  802295:	c7 00 01 00 00 00    	movl   $0x1,(%eax)
    msg->msg.inp.p = p;
  80229b:	8b 45 08             	mov    0x8(%ebp),%eax
  80229e:	89 43 08             	mov    %eax,0x8(%ebx)
    msg->msg.inp.netif = inp;
  8022a1:	8b 45 0c             	mov    0xc(%ebp),%eax
  8022a4:	89 43 0c             	mov    %eax,0xc(%ebx)
    if (sys_mbox_trypost(mbox, msg) != ERR_OK) {
  8022a7:	83 ec 08             	sub    $0x8,%esp
  8022aa:	53                   	push   %ebx
  8022ab:	ff 35 00 40 81 00    	push   0x814000
  8022b1:	e8 15 7f 00 00       	call   80a1cb <sys_mbox_trypost>
  8022b6:	83 c4 10             	add    $0x10,%esp
  8022b9:	84 c0                	test   %al,%al
  8022bb:	75 05                	jne    8022c2 <tcpip_input+0x4d>
}
  8022bd:	8b 5d fc             	mov    -0x4(%ebp),%ebx
  8022c0:	c9                   	leave  
  8022c1:	c3                   	ret    
      memp_free(MEMP_TCPIP_MSG_INPKT, msg);
  8022c2:	83 ec 08             	sub    $0x8,%esp
  8022c5:	53                   	push   %ebx
  8022c6:	6a 09                	push   $0x9
  8022c8:	e8 2e 22 00 00       	call   8044fb <memp_free>
      return ERR_MEM;
  8022cd:	83 c4 10             	add    $0x10,%esp
  8022d0:	b8 ff ff ff ff       	mov    $0xffffffff,%eax
  8022d5:	eb e6                	jmp    8022bd <tcpip_input+0x48>
  return ERR_VAL;
  8022d7:	b8 f7 ff ff ff       	mov    $0xfffffff7,%eax
}
  8022dc:	c3                   	ret    
      return ERR_MEM;
  8022dd:	b8 ff ff ff ff       	mov    $0xffffffff,%eax
  8022e2:	eb d9                	jmp    8022bd <tcpip_input+0x48>

008022e4 <tcpip_callback_with_block>:
{
  8022e4:	55                   	push   %ebp
  8022e5:	89 e5                	mov    %esp,%ebp
  8022e7:	56                   	push   %esi
  8022e8:	53                   	push   %ebx
  8022e9:	8b 75 10             	mov    0x10(%ebp),%esi
  if (mbox != SYS_MBOX_NULL) {
  8022ec:	83 3d 00 40 81 00 ff 	cmpl   $0xffffffff,0x814000
  8022f3:	74 76                	je     80236b <tcpip_callback_with_block+0x87>
    msg = memp_malloc(MEMP_TCPIP_MSG_API);
  8022f5:	83 ec 0c             	sub    $0xc,%esp
  8022f8:	6a 08                	push   $0x8
  8022fa:	e8 a6 21 00 00       	call   8044a5 <memp_malloc>
  8022ff:	89 c3                	mov    %eax,%ebx
    if (msg == NULL) {
  802301:	83 c4 10             	add    $0x10,%esp
  802304:	85 c0                	test   %eax,%eax
  802306:	74 6a                	je     802372 <tcpip_callback_with_block+0x8e>
    msg->type = TCPIP_MSG_CALLBACK;
  802308:	c7 00 02 00 00 00    	movl   $0x2,(%eax)
    msg->msg.cb.f = f;
  80230e:	8b 45 08             	mov    0x8(%ebp),%eax
  802311:	89 43 08             	mov    %eax,0x8(%ebx)
    msg->msg.cb.ctx = ctx;
  802314:	8b 45 0c             	mov    0xc(%ebp),%eax
  802317:	89 43 0c             	mov    %eax,0xc(%ebx)
    if (block) {
  80231a:	89 f0                	mov    %esi,%eax
  80231c:	84 c0                	test   %al,%al
  80231e:	75 1d                	jne    80233d <tcpip_callback_with_block+0x59>
      if (sys_mbox_trypost(mbox, msg) != ERR_OK) {
  802320:	83 ec 08             	sub    $0x8,%esp
  802323:	53                   	push   %ebx
  802324:	ff 35 00 40 81 00    	push   0x814000
  80232a:	e8 9c 7e 00 00       	call   80a1cb <sys_mbox_trypost>
  80232f:	83 c4 10             	add    $0x10,%esp
  802332:	84 c0                	test   %al,%al
  802334:	75 20                	jne    802356 <tcpip_callback_with_block+0x72>
}
  802336:	8d 65 f8             	lea    -0x8(%ebp),%esp
  802339:	5b                   	pop    %ebx
  80233a:	5e                   	pop    %esi
  80233b:	5d                   	pop    %ebp
  80233c:	c3                   	ret    
      sys_mbox_post(mbox, msg);
  80233d:	83 ec 08             	sub    $0x8,%esp
  802340:	53                   	push   %ebx
  802341:	ff 35 00 40 81 00    	push   0x814000
  802347:	e8 3d 7f 00 00       	call   80a289 <sys_mbox_post>
  80234c:	83 c4 10             	add    $0x10,%esp
    return ERR_OK;
  80234f:	b8 00 00 00 00       	mov    $0x0,%eax
  802354:	eb e0                	jmp    802336 <tcpip_callback_with_block+0x52>
        memp_free(MEMP_TCPIP_MSG_API, msg);
  802356:	83 ec 08             	sub    $0x8,%esp
  802359:	53                   	push   %ebx
  80235a:	6a 08                	push   $0x8
  80235c:	e8 9a 21 00 00       	call   8044fb <memp_free>
        return ERR_MEM;
  802361:	83 c4 10             	add    $0x10,%esp
  802364:	b8 ff ff ff ff       	mov    $0xffffffff,%eax
  802369:	eb cb                	jmp    802336 <tcpip_callback_with_block+0x52>
  return ERR_VAL;
  80236b:	b8 f7 ff ff ff       	mov    $0xfffffff7,%eax
  802370:	eb c4                	jmp    802336 <tcpip_callback_with_block+0x52>
      return ERR_MEM;
  802372:	b8 ff ff ff ff       	mov    $0xffffffff,%eax
  802377:	eb bd                	jmp    802336 <tcpip_callback_with_block+0x52>

00802379 <tcpip_timeout>:
  if (mbox != SYS_MBOX_NULL) {
  802379:	83 3d 00 40 81 00 ff 	cmpl   $0xffffffff,0x814000
  802380:	74 45                	je     8023c7 <tcpip_timeout+0x4e>
{
  802382:	55                   	push   %ebp
  802383:	89 e5                	mov    %esp,%ebp
  802385:	83 ec 14             	sub    $0x14,%esp
    msg = memp_malloc(MEMP_TCPIP_MSG_API);
  802388:	6a 08                	push   $0x8
  80238a:	e8 16 21 00 00       	call   8044a5 <memp_malloc>
    if (msg == NULL) {
  80238f:	83 c4 10             	add    $0x10,%esp
  802392:	85 c0                	test   %eax,%eax
  802394:	74 37                	je     8023cd <tcpip_timeout+0x54>
    msg->type = TCPIP_MSG_TIMEOUT;
  802396:	c7 00 03 00 00 00    	movl   $0x3,(%eax)
    msg->msg.tmo.msecs = msecs;
  80239c:	8b 55 08             	mov    0x8(%ebp),%edx
  80239f:	89 50 08             	mov    %edx,0x8(%eax)
    msg->msg.tmo.h = h;
  8023a2:	8b 55 0c             	mov    0xc(%ebp),%edx
  8023a5:	89 50 0c             	mov    %edx,0xc(%eax)
    msg->msg.tmo.arg = arg;
  8023a8:	8b 55 10             	mov    0x10(%ebp),%edx
  8023ab:	89 50 10             	mov    %edx,0x10(%eax)
    sys_mbox_post(mbox, msg);
  8023ae:	83 ec 08             	sub    $0x8,%esp
  8023b1:	50                   	push   %eax
  8023b2:	ff 35 00 40 81 00    	push   0x814000
  8023b8:	e8 cc 7e 00 00       	call   80a289 <sys_mbox_post>
    return ERR_OK;
  8023bd:	83 c4 10             	add    $0x10,%esp
  8023c0:	b8 00 00 00 00       	mov    $0x0,%eax
}
  8023c5:	c9                   	leave  
  8023c6:	c3                   	ret    
  return ERR_VAL;
  8023c7:	b8 f7 ff ff ff       	mov    $0xfffffff7,%eax
}
  8023cc:	c3                   	ret    
      return ERR_MEM;
  8023cd:	b8 ff ff ff ff       	mov    $0xffffffff,%eax
  8023d2:	eb f1                	jmp    8023c5 <tcpip_timeout+0x4c>

008023d4 <tcpip_apimsg>:
{
  8023d4:	55                   	push   %ebp
  8023d5:	89 e5                	mov    %esp,%ebp
  8023d7:	53                   	push   %ebx
  8023d8:	83 ec 24             	sub    $0x24,%esp
  8023db:	8b 5d 08             	mov    0x8(%ebp),%ebx
  if (mbox != SYS_MBOX_NULL) {
  8023de:	a1 00 40 81 00       	mov    0x814000,%eax
  8023e3:	83 f8 ff             	cmp    $0xffffffff,%eax
  8023e6:	74 34                	je     80241c <tcpip_apimsg+0x48>
    msg.type = TCPIP_MSG_API;
  8023e8:	c7 45 e4 00 00 00 00 	movl   $0x0,-0x1c(%ebp)
    msg.msg.apimsg = apimsg;
  8023ef:	89 5d ec             	mov    %ebx,-0x14(%ebp)
    sys_mbox_post(mbox, &msg);
  8023f2:	83 ec 08             	sub    $0x8,%esp
  8023f5:	8d 55 e4             	lea    -0x1c(%ebp),%edx
  8023f8:	52                   	push   %edx
  8023f9:	50                   	push   %eax
  8023fa:	e8 8a 7e 00 00       	call   80a289 <sys_mbox_post>
    sys_arch_sem_wait(apimsg->msg.conn->op_completed, 0);
  8023ff:	83 c4 08             	add    $0x8,%esp
  802402:	6a 00                	push   $0x0
  802404:	8b 43 04             	mov    0x4(%ebx),%eax
  802407:	ff 70 10             	push   0x10(%eax)
  80240a:	e8 82 7c 00 00       	call   80a091 <sys_arch_sem_wait>
    return ERR_OK;
  80240f:	83 c4 10             	add    $0x10,%esp
  802412:	b8 00 00 00 00       	mov    $0x0,%eax
}
  802417:	8b 5d fc             	mov    -0x4(%ebp),%ebx
  80241a:	c9                   	leave  
  80241b:	c3                   	ret    
  return ERR_VAL;
  80241c:	b8 f7 ff ff ff       	mov    $0xfffffff7,%eax
  802421:	eb f4                	jmp    802417 <tcpip_apimsg+0x43>

00802423 <tcpip_init>:
{
  802423:	55                   	push   %ebp
  802424:	89 e5                	mov    %esp,%ebp
  802426:	83 ec 08             	sub    $0x8,%esp
  lwip_init();
  802429:	e8 65 03 00 00       	call   802793 <lwip_init>
  tcpip_init_done = initfunc;
  80242e:	8b 45 08             	mov    0x8(%ebp),%eax
  802431:	a3 28 53 81 00       	mov    %eax,0x815328
  tcpip_init_done_arg = arg;
  802436:	8b 45 0c             	mov    0xc(%ebp),%eax
  802439:	a3 24 53 81 00       	mov    %eax,0x815324
  mbox = sys_mbox_new(TCPIP_MBOX_SIZE);
  80243e:	83 ec 0c             	sub    $0xc,%esp
  802441:	6a 00                	push   $0x0
  802443:	e8 c5 7a 00 00       	call   809f0d <sys_mbox_new>
  802448:	a3 00 40 81 00       	mov    %eax,0x814000
  sys_thread_new(TCPIP_THREAD_NAME, tcpip_thread, NULL, TCPIP_THREAD_STACKSIZE, TCPIP_THREAD_PRIO);
  80244d:	c7 04 24 01 00 00 00 	movl   $0x1,(%esp)
  802454:	6a 00                	push   $0x0
  802456:	6a 00                	push   $0x0
  802458:	68 4b 20 80 00       	push   $0x80204b
  80245d:	68 9c 0f 81 00       	push   $0x810f9c
  802462:	e8 5e 7f 00 00       	call   80a3c5 <sys_thread_new>
}
  802467:	83 c4 20             	add    $0x20,%esp
  80246a:	c9                   	leave  
  80246b:	c3                   	ret    

0080246c <pbuf_free_callback>:
 * @param p The pbuf (chain) to be dereferenced.
 * @return ERR_OK if callback could be enqueued, an err_t if not
 */
err_t
pbuf_free_callback(struct pbuf *p)
{
  80246c:	55                   	push   %ebp
  80246d:	89 e5                	mov    %esp,%ebp
  80246f:	83 ec 0c             	sub    $0xc,%esp
  return tcpip_callback_with_block(pbuf_free_int, p, 0);
  802472:	6a 00                	push   $0x0
  802474:	ff 75 08             	push   0x8(%ebp)
  802477:	68 20 22 80 00       	push   $0x802220
  80247c:	e8 63 fe ff ff       	call   8022e4 <tcpip_callback_with_block>
}
  802481:	c9                   	leave  
  802482:	c3                   	ret    

00802483 <mem_free_callback>:
 * @param m the heap memory to free
 * @return ERR_OK if callback could be enqueued, an err_t if not
 */
err_t
mem_free_callback(void *m)
{
  802483:	55                   	push   %ebp
  802484:	89 e5                	mov    %esp,%ebp
  802486:	83 ec 0c             	sub    $0xc,%esp
  return tcpip_callback_with_block(mem_free, m, 0);
  802489:	6a 00                	push   $0x0
  80248b:	ff 75 08             	push   0x8(%ebp)
  80248e:	68 62 3f 80 00       	push   $0x803f62
  802493:	e8 4c fe ff ff       	call   8022e4 <tcpip_callback_with_block>
}
  802498:	c9                   	leave  
  802499:	c3                   	ret    

0080249a <netbuf_new>:
 * @return a pointer to a new netbuf
 *         NULL on lack of memory
 */
struct
netbuf *netbuf_new(void)
{
  80249a:	55                   	push   %ebp
  80249b:	89 e5                	mov    %esp,%ebp
  80249d:	83 ec 14             	sub    $0x14,%esp
  struct netbuf *buf;

  buf = memp_malloc(MEMP_NETBUF);
  8024a0:	6a 06                	push   $0x6
  8024a2:	e8 fe 1f 00 00       	call   8044a5 <memp_malloc>
  if (buf != NULL) {
  8024a7:	83 c4 10             	add    $0x10,%esp
  8024aa:	85 c0                	test   %eax,%eax
  8024ac:	74 14                	je     8024c2 <netbuf_new+0x28>
    buf->p = NULL;
  8024ae:	c7 00 00 00 00 00    	movl   $0x0,(%eax)
    buf->ptr = NULL;
  8024b4:	c7 40 04 00 00 00 00 	movl   $0x0,0x4(%eax)
    buf->addr = NULL;
  8024bb:	c7 40 08 00 00 00 00 	movl   $0x0,0x8(%eax)
    return buf;
  } else {
    return NULL;
  }
}
  8024c2:	c9                   	leave  
  8024c3:	c3                   	ret    

008024c4 <netbuf_delete>:
 *
 * @param buf pointer to a netbuf allocated by netbuf_new()
 */
void
netbuf_delete(struct netbuf *buf)
{
  8024c4:	55                   	push   %ebp
  8024c5:	89 e5                	mov    %esp,%ebp
  8024c7:	53                   	push   %ebx
  8024c8:	83 ec 04             	sub    $0x4,%esp
  8024cb:	8b 5d 08             	mov    0x8(%ebp),%ebx
  if (buf != NULL) {
  8024ce:	85 db                	test   %ebx,%ebx
  8024d0:	74 2d                	je     8024ff <netbuf_delete+0x3b>
    if (buf->p != NULL) {
  8024d2:	8b 03                	mov    (%ebx),%eax
  8024d4:	85 c0                	test   %eax,%eax
  8024d6:	74 19                	je     8024f1 <netbuf_delete+0x2d>
      pbuf_free(buf->p);
  8024d8:	83 ec 0c             	sub    $0xc,%esp
  8024db:	50                   	push   %eax
  8024dc:	e8 6b 23 00 00       	call   80484c <pbuf_free>
      buf->p = buf->ptr = NULL;
  8024e1:	c7 43 04 00 00 00 00 	movl   $0x0,0x4(%ebx)
  8024e8:	c7 03 00 00 00 00    	movl   $0x0,(%ebx)
  8024ee:	83 c4 10             	add    $0x10,%esp
    }
    memp_free(MEMP_NETBUF, buf);
  8024f1:	83 ec 08             	sub    $0x8,%esp
  8024f4:	53                   	push   %ebx
  8024f5:	6a 06                	push   $0x6
  8024f7:	e8 ff 1f 00 00       	call   8044fb <memp_free>
  8024fc:	83 c4 10             	add    $0x10,%esp
  }
}
  8024ff:	8b 5d fc             	mov    -0x4(%ebp),%ebx
  802502:	c9                   	leave  
  802503:	c3                   	ret    

00802504 <netbuf_alloc>:
 * @return pointer to the allocated memory
 *         NULL if no memory could be allocated
 */
void *
netbuf_alloc(struct netbuf *buf, u16_t size)
{
  802504:	55                   	push   %ebp
  802505:	89 e5                	mov    %esp,%ebp
  802507:	56                   	push   %esi
  802508:	53                   	push   %ebx
  802509:	8b 5d 08             	mov    0x8(%ebp),%ebx
  80250c:	8b 75 0c             	mov    0xc(%ebp),%esi
  LWIP_ERROR("netbuf_alloc: invalid buf", (buf != NULL), return NULL;);
  80250f:	85 db                	test   %ebx,%ebx
  802511:	74 3e                	je     802551 <netbuf_alloc+0x4d>

  /* Deallocate any previously allocated memory. */
  if (buf->p != NULL) {
  802513:	8b 03                	mov    (%ebx),%eax
  802515:	85 c0                	test   %eax,%eax
  802517:	74 0c                	je     802525 <netbuf_alloc+0x21>
    pbuf_free(buf->p);
  802519:	83 ec 0c             	sub    $0xc,%esp
  80251c:	50                   	push   %eax
  80251d:	e8 2a 23 00 00       	call   80484c <pbuf_free>
  802522:	83 c4 10             	add    $0x10,%esp
  }
  buf->p = pbuf_alloc(PBUF_TRANSPORT, size, PBUF_RAM);
  802525:	83 ec 04             	sub    $0x4,%esp
  802528:	6a 00                	push   $0x0
  80252a:	0f b7 c6             	movzwl %si,%eax
  80252d:	50                   	push   %eax
  80252e:	6a 00                	push   $0x0
  802530:	e8 dd 23 00 00       	call   804912 <pbuf_alloc>
  802535:	89 03                	mov    %eax,(%ebx)
  if (buf->p == NULL) {
  802537:	83 c4 10             	add    $0x10,%esp
  80253a:	85 c0                	test   %eax,%eax
  80253c:	74 0c                	je     80254a <netbuf_alloc+0x46>
     return NULL;
  }
  LWIP_ASSERT("check that first pbuf can hold size",
  80253e:	66 39 70 0a          	cmp    %si,0xa(%eax)
  802542:	72 21                	jb     802565 <netbuf_alloc+0x61>
             (buf->p->len >= size));
  buf->ptr = buf->p;
  802544:	89 43 04             	mov    %eax,0x4(%ebx)
  return buf->p->payload;
  802547:	8b 40 04             	mov    0x4(%eax),%eax
}
  80254a:	8d 65 f8             	lea    -0x8(%ebp),%esp
  80254d:	5b                   	pop    %ebx
  80254e:	5e                   	pop    %esi
  80254f:	5d                   	pop    %ebp
  802550:	c3                   	ret    
  LWIP_ERROR("netbuf_alloc: invalid buf", (buf != NULL), return NULL;);
  802551:	83 ec 04             	sub    $0x4,%esp
  802554:	68 a9 0f 81 00       	push   $0x810fa9
  802559:	6a 63                	push   $0x63
  80255b:	68 c3 0f 81 00       	push   $0x810fc3
  802560:	e8 71 bf 00 00       	call   80e4d6 <_panic>
  LWIP_ASSERT("check that first pbuf can hold size",
  802565:	83 ec 04             	sub    $0x4,%esp
  802568:	68 90 10 81 00       	push   $0x811090
  80256d:	6a 6d                	push   $0x6d
  80256f:	68 c3 0f 81 00       	push   $0x810fc3
  802574:	e8 5d bf 00 00       	call   80e4d6 <_panic>

00802579 <netbuf_free>:
 *
 * @param buf pointer to the netbuf which contains the packet buffer to free
 */
void
netbuf_free(struct netbuf *buf)
{
  802579:	55                   	push   %ebp
  80257a:	89 e5                	mov    %esp,%ebp
  80257c:	53                   	push   %ebx
  80257d:	83 ec 04             	sub    $0x4,%esp
  802580:	8b 5d 08             	mov    0x8(%ebp),%ebx
  LWIP_ERROR("netbuf_free: invalid buf", (buf != NULL), return;);
  802583:	85 db                	test   %ebx,%ebx
  802585:	74 24                	je     8025ab <netbuf_free+0x32>
  if (buf->p != NULL) {
  802587:	8b 03                	mov    (%ebx),%eax
  802589:	85 c0                	test   %eax,%eax
  80258b:	74 0c                	je     802599 <netbuf_free+0x20>
    pbuf_free(buf->p);
  80258d:	83 ec 0c             	sub    $0xc,%esp
  802590:	50                   	push   %eax
  802591:	e8 b6 22 00 00       	call   80484c <pbuf_free>
  802596:	83 c4 10             	add    $0x10,%esp
  }
  buf->p = buf->ptr = NULL;
  802599:	c7 43 04 00 00 00 00 	movl   $0x0,0x4(%ebx)
  8025a0:	c7 03 00 00 00 00    	movl   $0x0,(%ebx)
}
  8025a6:	8b 5d fc             	mov    -0x4(%ebp),%ebx
  8025a9:	c9                   	leave  
  8025aa:	c3                   	ret    
  LWIP_ERROR("netbuf_free: invalid buf", (buf != NULL), return;);
  8025ab:	83 ec 04             	sub    $0x4,%esp
  8025ae:	68 d9 0f 81 00       	push   $0x810fd9
  8025b3:	6a 7b                	push   $0x7b
  8025b5:	68 c3 0f 81 00       	push   $0x810fc3
  8025ba:	e8 17 bf 00 00       	call   80e4d6 <_panic>

008025bf <netbuf_ref>:
 * @return ERR_OK if data is referenced
 *         ERR_MEM if data couldn't be referenced due to lack of memory
 */
err_t
netbuf_ref(struct netbuf *buf, const void *dataptr, u16_t size)
{
  8025bf:	55                   	push   %ebp
  8025c0:	89 e5                	mov    %esp,%ebp
  8025c2:	56                   	push   %esi
  8025c3:	53                   	push   %ebx
  8025c4:	8b 5d 08             	mov    0x8(%ebp),%ebx
  8025c7:	8b 75 10             	mov    0x10(%ebp),%esi
  LWIP_ERROR("netbuf_ref: invalid buf", (buf != NULL), return ERR_ARG;);
  8025ca:	85 db                	test   %ebx,%ebx
  8025cc:	74 4e                	je     80261c <netbuf_ref+0x5d>
  if (buf->p != NULL) {
  8025ce:	8b 03                	mov    (%ebx),%eax
  8025d0:	85 c0                	test   %eax,%eax
  8025d2:	74 0c                	je     8025e0 <netbuf_ref+0x21>
    pbuf_free(buf->p);
  8025d4:	83 ec 0c             	sub    $0xc,%esp
  8025d7:	50                   	push   %eax
  8025d8:	e8 6f 22 00 00       	call   80484c <pbuf_free>
  8025dd:	83 c4 10             	add    $0x10,%esp
  }
  buf->p = pbuf_alloc(PBUF_TRANSPORT, 0, PBUF_REF);
  8025e0:	83 ec 04             	sub    $0x4,%esp
  8025e3:	6a 02                	push   $0x2
  8025e5:	6a 00                	push   $0x0
  8025e7:	6a 00                	push   $0x0
  8025e9:	e8 24 23 00 00       	call   804912 <pbuf_alloc>
  8025ee:	89 03                	mov    %eax,(%ebx)
  if (buf->p == NULL) {
  8025f0:	83 c4 10             	add    $0x10,%esp
  8025f3:	85 c0                	test   %eax,%eax
  8025f5:	74 3c                	je     802633 <netbuf_ref+0x74>
    buf->ptr = NULL;
    return ERR_MEM;
  }
  buf->p->payload = (void*)dataptr;
  8025f7:	8b 55 0c             	mov    0xc(%ebp),%edx
  8025fa:	89 50 04             	mov    %edx,0x4(%eax)
  buf->p->len = buf->p->tot_len = size;
  8025fd:	8b 03                	mov    (%ebx),%eax
  8025ff:	66 89 70 08          	mov    %si,0x8(%eax)
  802603:	8b 03                	mov    (%ebx),%eax
  802605:	66 89 70 0a          	mov    %si,0xa(%eax)
  buf->ptr = buf->p;
  802609:	8b 03                	mov    (%ebx),%eax
  return ERR_OK;
  80260b:	ba 00 00 00 00       	mov    $0x0,%edx
  buf->ptr = buf->p;
  802610:	89 43 04             	mov    %eax,0x4(%ebx)
}
  802613:	89 d0                	mov    %edx,%eax
  802615:	8d 65 f8             	lea    -0x8(%ebp),%esp
  802618:	5b                   	pop    %ebx
  802619:	5e                   	pop    %esi
  80261a:	5d                   	pop    %ebp
  80261b:	c3                   	ret    
  LWIP_ERROR("netbuf_ref: invalid buf", (buf != NULL), return ERR_ARG;);
  80261c:	83 ec 04             	sub    $0x4,%esp
  80261f:	68 f2 0f 81 00       	push   $0x810ff2
  802624:	68 8e 00 00 00       	push   $0x8e
  802629:	68 c3 0f 81 00       	push   $0x810fc3
  80262e:	e8 a3 be 00 00       	call   80e4d6 <_panic>
    return ERR_MEM;
  802633:	ba ff ff ff ff       	mov    $0xffffffff,%edx
  802638:	eb d6                	jmp    802610 <netbuf_ref+0x51>

0080263a <netbuf_chain>:
 * @param head the first netbuf
 * @param tail netbuf to chain after head
 */
void
netbuf_chain(struct netbuf *head, struct netbuf *tail)
{
  80263a:	55                   	push   %ebp
  80263b:	89 e5                	mov    %esp,%ebp
  80263d:	56                   	push   %esi
  80263e:	53                   	push   %ebx
  80263f:	8b 5d 08             	mov    0x8(%ebp),%ebx
  802642:	8b 75 0c             	mov    0xc(%ebp),%esi
  LWIP_ERROR("netbuf_ref: invalid head", (head != NULL), return;);
  802645:	85 db                	test   %ebx,%ebx
  802647:	74 2a                	je     802673 <netbuf_chain+0x39>
  LWIP_ERROR("netbuf_chain: invalid tail", (tail != NULL), return;);
  802649:	85 f6                	test   %esi,%esi
  80264b:	74 3d                	je     80268a <netbuf_chain+0x50>
  pbuf_chain(head->p, tail->p);
  80264d:	83 ec 08             	sub    $0x8,%esp
  802650:	ff 36                	push   (%esi)
  802652:	ff 33                	push   (%ebx)
  802654:	e8 c1 26 00 00       	call   804d1a <pbuf_chain>
  head->ptr = head->p;
  802659:	8b 03                	mov    (%ebx),%eax
  80265b:	89 43 04             	mov    %eax,0x4(%ebx)
  memp_free(MEMP_NETBUF, tail);
  80265e:	83 c4 08             	add    $0x8,%esp
  802661:	56                   	push   %esi
  802662:	6a 06                	push   $0x6
  802664:	e8 92 1e 00 00       	call   8044fb <memp_free>
  802669:	83 c4 10             	add    $0x10,%esp
}
  80266c:	8d 65 f8             	lea    -0x8(%ebp),%esp
  80266f:	5b                   	pop    %ebx
  802670:	5e                   	pop    %esi
  802671:	5d                   	pop    %ebp
  802672:	c3                   	ret    
  LWIP_ERROR("netbuf_ref: invalid head", (head != NULL), return;);
  802673:	83 ec 04             	sub    $0x4,%esp
  802676:	68 0a 10 81 00       	push   $0x81100a
  80267b:	68 a6 00 00 00       	push   $0xa6
  802680:	68 c3 0f 81 00       	push   $0x810fc3
  802685:	e8 4c be 00 00       	call   80e4d6 <_panic>
  LWIP_ERROR("netbuf_chain: invalid tail", (tail != NULL), return;);
  80268a:	83 ec 04             	sub    $0x4,%esp
  80268d:	68 23 10 81 00       	push   $0x811023
  802692:	68 a7 00 00 00       	push   $0xa7
  802697:	68 c3 0f 81 00       	push   $0x810fc3
  80269c:	e8 35 be 00 00       	call   80e4d6 <_panic>

008026a1 <netbuf_data>:
 * @return ERR_OK if the information was retreived,
 *         ERR_BUF on error.
 */
err_t
netbuf_data(struct netbuf *buf, void **dataptr, u16_t *len)
{
  8026a1:	55                   	push   %ebp
  8026a2:	89 e5                	mov    %esp,%ebp
  8026a4:	53                   	push   %ebx
  8026a5:	83 ec 04             	sub    $0x4,%esp
  8026a8:	8b 45 08             	mov    0x8(%ebp),%eax
  8026ab:	8b 4d 0c             	mov    0xc(%ebp),%ecx
  8026ae:	8b 55 10             	mov    0x10(%ebp),%edx
  LWIP_ERROR("netbuf_data: invalid buf", (buf != NULL), return ERR_ARG;);
  8026b1:	85 c0                	test   %eax,%eax
  8026b3:	74 28                	je     8026dd <netbuf_data+0x3c>
  LWIP_ERROR("netbuf_data: invalid dataptr", (dataptr != NULL), return ERR_ARG;);
  8026b5:	85 c9                	test   %ecx,%ecx
  8026b7:	74 3b                	je     8026f4 <netbuf_data+0x53>
  LWIP_ERROR("netbuf_data: invalid len", (len != NULL), return ERR_ARG;);
  8026b9:	85 d2                	test   %edx,%edx
  8026bb:	74 4e                	je     80270b <netbuf_data+0x6a>

  if (buf->ptr == NULL) {
  8026bd:	8b 58 04             	mov    0x4(%eax),%ebx
  8026c0:	85 db                	test   %ebx,%ebx
  8026c2:	74 5e                	je     802722 <netbuf_data+0x81>
    return ERR_BUF;
  }
  *dataptr = buf->ptr->payload;
  8026c4:	8b 5b 04             	mov    0x4(%ebx),%ebx
  8026c7:	89 19                	mov    %ebx,(%ecx)
  *len = buf->ptr->len;
  8026c9:	8b 40 04             	mov    0x4(%eax),%eax
  8026cc:	0f b7 40 0a          	movzwl 0xa(%eax),%eax
  8026d0:	66 89 02             	mov    %ax,(%edx)
  return ERR_OK;
  8026d3:	b8 00 00 00 00       	mov    $0x0,%eax
}
  8026d8:	8b 5d fc             	mov    -0x4(%ebp),%ebx
  8026db:	c9                   	leave  
  8026dc:	c3                   	ret    
  LWIP_ERROR("netbuf_data: invalid buf", (buf != NULL), return ERR_ARG;);
  8026dd:	83 ec 04             	sub    $0x4,%esp
  8026e0:	68 3e 10 81 00       	push   $0x81103e
  8026e5:	68 b9 00 00 00       	push   $0xb9
  8026ea:	68 c3 0f 81 00       	push   $0x810fc3
  8026ef:	e8 e2 bd 00 00       	call   80e4d6 <_panic>
  LWIP_ERROR("netbuf_data: invalid dataptr", (dataptr != NULL), return ERR_ARG;);
  8026f4:	83 ec 04             	sub    $0x4,%esp
  8026f7:	68 57 10 81 00       	push   $0x811057
  8026fc:	68 ba 00 00 00       	push   $0xba
  802701:	68 c3 0f 81 00       	push   $0x810fc3
  802706:	e8 cb bd 00 00       	call   80e4d6 <_panic>
  LWIP_ERROR("netbuf_data: invalid len", (len != NULL), return ERR_ARG;);
  80270b:	83 ec 04             	sub    $0x4,%esp
  80270e:	68 74 10 81 00       	push   $0x811074
  802713:	68 bb 00 00 00       	push   $0xbb
  802718:	68 c3 0f 81 00       	push   $0x810fc3
  80271d:	e8 b4 bd 00 00       	call   80e4d6 <_panic>
    return ERR_BUF;
  802722:	b8 fe ff ff ff       	mov    $0xfffffffe,%eax
  802727:	eb af                	jmp    8026d8 <netbuf_data+0x37>

00802729 <netbuf_next>:
 *         1  if moved to the next part but now there is no next part
 *         0  if moved to the next part and there are still more parts
 */
s8_t
netbuf_next(struct netbuf *buf)
{
  802729:	55                   	push   %ebp
  80272a:	89 e5                	mov    %esp,%ebp
  80272c:	83 ec 08             	sub    $0x8,%esp
  80272f:	8b 45 08             	mov    0x8(%ebp),%eax
  LWIP_ERROR("netbuf_free: invalid buf", (buf != NULL), return -1;);
  802732:	85 c0                	test   %eax,%eax
  802734:	74 14                	je     80274a <netbuf_next+0x21>
  if (buf->ptr->next == NULL) {
  802736:	8b 50 04             	mov    0x4(%eax),%edx
  802739:	8b 12                	mov    (%edx),%edx
  80273b:	85 d2                	test   %edx,%edx
  80273d:	74 22                	je     802761 <netbuf_next+0x38>
    return -1;
  }
  buf->ptr = buf->ptr->next;
  80273f:	89 50 04             	mov    %edx,0x4(%eax)
  if (buf->ptr->next == NULL) {
  802742:	83 3a 00             	cmpl   $0x0,(%edx)
  802745:	0f 94 c0             	sete   %al
    return 1;
  }
  return 0;
}
  802748:	c9                   	leave  
  802749:	c3                   	ret    
  LWIP_ERROR("netbuf_free: invalid buf", (buf != NULL), return -1;);
  80274a:	83 ec 04             	sub    $0x4,%esp
  80274d:	68 d9 0f 81 00       	push   $0x810fd9
  802752:	68 d2 00 00 00       	push   $0xd2
  802757:	68 c3 0f 81 00       	push   $0x810fc3
  80275c:	e8 75 bd 00 00       	call   80e4d6 <_panic>
    return -1;
  802761:	b8 ff ff ff ff       	mov    $0xffffffff,%eax
  802766:	eb e0                	jmp    802748 <netbuf_next+0x1f>

00802768 <netbuf_first>:
 *
 * @param buf the netbuf to modify
 */
void
netbuf_first(struct netbuf *buf)
{
  802768:	55                   	push   %ebp
  802769:	89 e5                	mov    %esp,%ebp
  80276b:	83 ec 08             	sub    $0x8,%esp
  80276e:	8b 45 08             	mov    0x8(%ebp),%eax
  LWIP_ERROR("netbuf_free: invalid buf", (buf != NULL), return;);
  802771:	85 c0                	test   %eax,%eax
  802773:	74 07                	je     80277c <netbuf_first+0x14>
  buf->ptr = buf->p;
  802775:	8b 10                	mov    (%eax),%edx
  802777:	89 50 04             	mov    %edx,0x4(%eax)
}
  80277a:	c9                   	leave  
  80277b:	c3                   	ret    
  LWIP_ERROR("netbuf_free: invalid buf", (buf != NULL), return;);
  80277c:	83 ec 04             	sub    $0x4,%esp
  80277f:	68 d9 0f 81 00       	push   $0x810fd9
  802784:	68 e7 00 00 00       	push   $0xe7
  802789:	68 c3 0f 81 00       	push   $0x810fc3
  80278e:	e8 43 bd 00 00       	call   80e4d6 <_panic>

00802793 <lwip_init>:
/**
 * Perform Sanity check of user-configurable values, and initialize all modules.
 */
void
lwip_init(void)
{
  802793:	55                   	push   %ebp
  802794:	89 e5                	mov    %esp,%ebp
  802796:	83 ec 08             	sub    $0x8,%esp
  /* Sanity check user-configurable values */
  lwip_sanity_check();

  /* Modules initialization */
  stats_init();
  sys_init();
  802799:	e8 15 75 00 00       	call   809cb3 <sys_init>
  mem_init();
  80279e:	e8 59 17 00 00       	call   803efc <mem_init>
  memp_init();
  8027a3:	e8 a1 1c 00 00       	call   804449 <memp_init>
  pbuf_init();
  netif_init();
#if LWIP_SOCKET
  lwip_socket_init();
  8027a8:	e8 e4 e6 ff ff       	call   800e91 <lwip_socket_init>
  igmp_init();
#endif /* LWIP_IGMP */
#if LWIP_DNS
  dns_init();
#endif /* LWIP_DNS */
}
  8027ad:	c9                   	leave  
  8027ae:	c3                   	ret    

008027af <dhcp_set_state>:
 * TODO: we might also want to reset the timeout here?
 */
static void
dhcp_set_state(struct dhcp *dhcp, u8_t new_state)
{
  if (new_state != dhcp->state) {
  8027af:	38 10                	cmp    %dl,(%eax)
  8027b1:	74 06                	je     8027b9 <dhcp_set_state+0xa>
    dhcp->state = new_state;
  8027b3:	88 10                	mov    %dl,(%eax)
    dhcp->tries = 0;
  8027b5:	c6 40 01 00          	movb   $0x0,0x1(%eax)
  }
}
  8027b9:	c3                   	ret    

008027ba <dhcp_get_option_ptr>:
 *
 * @return a byte offset into the UDP message where the option was found, or
 * zero if the given option was not found.
 */
static u8_t *dhcp_get_option_ptr(struct dhcp *dhcp, u8_t option_type)
{
  8027ba:	55                   	push   %ebp
  8027bb:	89 e5                	mov    %esp,%ebp
  8027bd:	57                   	push   %edi
  8027be:	56                   	push   %esi
  8027bf:	53                   	push   %ebx
  8027c0:	83 ec 0c             	sub    $0xc,%esp
  8027c3:	89 45 e8             	mov    %eax,-0x18(%ebp)
  8027c6:	89 d6                	mov    %edx,%esi
  u8_t overload = DHCP_OVERLOAD_NONE;

  /* options available? */
  if ((dhcp->options_in != NULL) && (dhcp->options_in_len > 0)) {
  8027c8:	8b 50 14             	mov    0x14(%eax),%edx
  8027cb:	85 d2                	test   %edx,%edx
  8027cd:	74 17                	je     8027e6 <dhcp_get_option_ptr+0x2c>
  8027cf:	0f b7 78 18          	movzwl 0x18(%eax),%edi
    /* start with options field */
    u8_t *options = (u8_t *)dhcp->options_in;
    u16_t offset = 0;
  8027d3:	b8 00 00 00 00       	mov    $0x0,%eax
  u8_t overload = DHCP_OVERLOAD_NONE;
  8027d8:	c6 45 ef 00          	movb   $0x0,-0x11(%ebp)
  if ((dhcp->options_in != NULL) && (dhcp->options_in_len > 0)) {
  8027dc:	66 85 ff             	test   %di,%di
  8027df:	75 24                	jne    802805 <dhcp_get_option_ptr+0x4b>
          offset += 1 + options[offset];
        }
      }
    }
  }
  return NULL;
  8027e1:	ba 00 00 00 00       	mov    $0x0,%edx
}
  8027e6:	89 d0                	mov    %edx,%eax
  8027e8:	83 c4 0c             	add    $0xc,%esp
  8027eb:	5b                   	pop    %ebx
  8027ec:	5e                   	pop    %esi
  8027ed:	5f                   	pop    %edi
  8027ee:	5d                   	pop    %ebp
  8027ef:	c3                   	ret    
        offset += 2;
  8027f0:	8d 48 02             	lea    0x2(%eax),%ecx
        overload = options[offset++];
  8027f3:	83 c0 03             	add    $0x3,%eax
  8027f6:	0f b7 c9             	movzwl %cx,%ecx
  8027f9:	0f b6 1c 0a          	movzbl (%edx,%ecx,1),%ebx
  8027fd:	88 5d ef             	mov    %bl,-0x11(%ebp)
    while ((offset < dhcp->options_in_len) && (options[offset] != DHCP_OPTION_END)) {
  802800:	66 39 c7             	cmp    %ax,%di
  802803:	76 30                	jbe    802835 <dhcp_get_option_ptr+0x7b>
  802805:	0f b7 c8             	movzwl %ax,%ecx
  802808:	8d 1c 11             	lea    (%ecx,%edx,1),%ebx
  80280b:	89 5d f0             	mov    %ebx,-0x10(%ebp)
  80280e:	0f b6 1b             	movzbl (%ebx),%ebx
  802811:	80 fb ff             	cmp    $0xff,%bl
  802814:	74 1f                	je     802835 <dhcp_get_option_ptr+0x7b>
      if (options[offset] == DHCP_OPTION_OVERLOAD) {
  802816:	80 fb 34             	cmp    $0x34,%bl
  802819:	74 d5                	je     8027f0 <dhcp_get_option_ptr+0x36>
      else if (options[offset] == option_type) {
  80281b:	89 f1                	mov    %esi,%ecx
  80281d:	38 cb                	cmp    %cl,%bl
  80281f:	0f 84 9f 00 00 00    	je     8028c4 <dhcp_get_option_ptr+0x10a>
        offset++;
  802825:	8d 48 01             	lea    0x1(%eax),%ecx
        offset += 1 + options[offset];
  802828:	0f b7 c9             	movzwl %cx,%ecx
  80282b:	0f b6 0c 0a          	movzbl (%edx,%ecx,1),%ecx
  80282f:	8d 44 01 02          	lea    0x2(%ecx,%eax,1),%eax
  802833:	eb cb                	jmp    802800 <dhcp_get_option_ptr+0x46>
  return NULL;
  802835:	ba 00 00 00 00       	mov    $0x0,%edx
    if (overload != DHCP_OVERLOAD_NONE) {
  80283a:	0f b6 45 ef          	movzbl -0x11(%ebp),%eax
  80283e:	84 c0                	test   %al,%al
  802840:	74 a4                	je     8027e6 <dhcp_get_option_ptr+0x2c>
      if (overload == DHCP_OVERLOAD_FILE) {
  802842:	3c 01                	cmp    $0x1,%al
  802844:	74 54                	je     80289a <dhcp_get_option_ptr+0xe0>
      } else if (overload == DHCP_OVERLOAD_SNAME) {
  802846:	80 7d ef 02          	cmpb   $0x2,-0x11(%ebp)
  80284a:	74 5e                	je     8028aa <dhcp_get_option_ptr+0xf0>
        options = (u8_t *)&dhcp->msg_in->sname;
  80284c:	8b 45 e8             	mov    -0x18(%ebp),%eax
  80284f:	8b 58 10             	mov    0x10(%eax),%ebx
  802852:	83 c3 2c             	add    $0x2c,%ebx
        field_len = DHCP_FILE_LEN + DHCP_SNAME_LEN;
  802855:	bf c0 00 00 00       	mov    $0xc0,%edi
      offset = 0;
  80285a:	b9 00 00 00 00       	mov    $0x0,%ecx
  80285f:	89 f0                	mov    %esi,%eax
  802861:	88 45 f0             	mov    %al,-0x10(%ebp)
      while ((offset < field_len) && (options[offset] != DHCP_OPTION_END)) {
  802864:	0f b7 d1             	movzwl %cx,%edx
  802867:	01 da                	add    %ebx,%edx
  802869:	0f b6 32             	movzbl (%edx),%esi
  80286c:	89 f0                	mov    %esi,%eax
  80286e:	3c ff                	cmp    $0xff,%al
  802870:	74 48                	je     8028ba <dhcp_get_option_ptr+0x100>
        if (options[offset] == option_type) {
  802872:	89 f0                	mov    %esi,%eax
  802874:	3a 45 f0             	cmp    -0x10(%ebp),%al
  802877:	0f 84 69 ff ff ff    	je     8027e6 <dhcp_get_option_ptr+0x2c>
          offset++;
  80287d:	8d 51 01             	lea    0x1(%ecx),%edx
          offset += 1 + options[offset];
  802880:	0f b7 d2             	movzwl %dx,%edx
  802883:	0f b6 14 13          	movzbl (%ebx,%edx,1),%edx
  802887:	8d 4c 11 02          	lea    0x2(%ecx,%edx,1),%ecx
      while ((offset < field_len) && (options[offset] != DHCP_OPTION_END)) {
  80288b:	66 39 cf             	cmp    %cx,%di
  80288e:	77 d4                	ja     802864 <dhcp_get_option_ptr+0xaa>
  return NULL;
  802890:	ba 00 00 00 00       	mov    $0x0,%edx
  802895:	e9 4c ff ff ff       	jmp    8027e6 <dhcp_get_option_ptr+0x2c>
        options = (u8_t *)&dhcp->msg_in->file;
  80289a:	8b 45 e8             	mov    -0x18(%ebp),%eax
  80289d:	8b 58 10             	mov    0x10(%eax),%ebx
  8028a0:	83 c3 6c             	add    $0x6c,%ebx
        field_len = DHCP_FILE_LEN;
  8028a3:	bf 80 00 00 00       	mov    $0x80,%edi
  8028a8:	eb b0                	jmp    80285a <dhcp_get_option_ptr+0xa0>
        options = (u8_t *)&dhcp->msg_in->sname;
  8028aa:	8b 45 e8             	mov    -0x18(%ebp),%eax
  8028ad:	8b 58 10             	mov    0x10(%eax),%ebx
  8028b0:	83 c3 2c             	add    $0x2c,%ebx
        field_len = DHCP_SNAME_LEN;
  8028b3:	bf 40 00 00 00       	mov    $0x40,%edi
  8028b8:	eb a0                	jmp    80285a <dhcp_get_option_ptr+0xa0>
  return NULL;
  8028ba:	ba 00 00 00 00       	mov    $0x0,%edx
  8028bf:	e9 22 ff ff ff       	jmp    8027e6 <dhcp_get_option_ptr+0x2c>
    while ((offset < dhcp->options_in_len) && (options[offset] != DHCP_OPTION_END)) {
  8028c4:	8b 4d f0             	mov    -0x10(%ebp),%ecx
  8028c7:	89 ca                	mov    %ecx,%edx
  8028c9:	e9 18 ff ff ff       	jmp    8027e6 <dhcp_get_option_ptr+0x2c>

008028ce <dhcp_get_option_long>:
 * @return byte value at the given address.
 */
static u32_t dhcp_get_option_long(u8_t *ptr)
{
  u32_t value;
  value = (u32_t)(*ptr++) << 24;
  8028ce:	0f b6 08             	movzbl (%eax),%ecx
  8028d1:	c1 e1 18             	shl    $0x18,%ecx
  value |= (u32_t)(*ptr++) << 16;
  8028d4:	0f b6 50 01          	movzbl 0x1(%eax),%edx
  8028d8:	c1 e2 10             	shl    $0x10,%edx
  8028db:	09 ca                	or     %ecx,%edx
  value |= (u32_t)(*ptr++) << 8;
  value |= (u32_t)(*ptr++);
  8028dd:	0f b6 48 03          	movzbl 0x3(%eax),%ecx
  8028e1:	09 ca                	or     %ecx,%edx
  value |= (u32_t)(*ptr++) << 8;
  8028e3:	0f b6 40 02          	movzbl 0x2(%eax),%eax
  8028e7:	c1 e0 08             	shl    $0x8,%eax
  value |= (u32_t)(*ptr++);
  8028ea:	09 d0                	or     %edx,%eax
  LWIP_DEBUGF(DHCP_DEBUG, ("option long value=%"U32_F"\n", value));
  return value;
}
  8028ec:	c3                   	ret    

008028ed <dhcp_option_byte>:
{
  8028ed:	55                   	push   %ebp
  8028ee:	89 e5                	mov    %esp,%ebp
  8028f0:	56                   	push   %esi
  8028f1:	53                   	push   %ebx
  LWIP_ASSERT("dhcp_option_byte: dhcp->options_out_len < DHCP_OPTIONS_LEN", dhcp->options_out_len < DHCP_OPTIONS_LEN);
  8028f2:	0f b7 48 24          	movzwl 0x24(%eax),%ecx
  8028f6:	66 83 f9 43          	cmp    $0x43,%cx
  8028fa:	77 1b                	ja     802917 <dhcp_option_byte+0x2a>
  dhcp->msg_out->options[dhcp->options_out_len++] = value;
  8028fc:	8b 58 20             	mov    0x20(%eax),%ebx
  8028ff:	8d 71 01             	lea    0x1(%ecx),%esi
  802902:	66 89 70 24          	mov    %si,0x24(%eax)
  802906:	0f b7 c9             	movzwl %cx,%ecx
  802909:	88 94 0b f0 00 00 00 	mov    %dl,0xf0(%ebx,%ecx,1)
}
  802910:	8d 65 f8             	lea    -0x8(%ebp),%esp
  802913:	5b                   	pop    %ebx
  802914:	5e                   	pop    %esi
  802915:	5d                   	pop    %ebp
  802916:	c3                   	ret    
  LWIP_ASSERT("dhcp_option_byte: dhcp->options_out_len < DHCP_OPTIONS_LEN", dhcp->options_out_len < DHCP_OPTIONS_LEN);
  802917:	83 ec 04             	sub    $0x4,%esp
  80291a:	68 b4 10 81 00       	push   $0x8110b4
  80291f:	68 65 04 00 00       	push   $0x465
  802924:	68 02 14 81 00       	push   $0x811402
  802929:	e8 a8 bb 00 00       	call   80e4d6 <_panic>

0080292e <dhcp_option>:
{
  80292e:	55                   	push   %ebp
  80292f:	89 e5                	mov    %esp,%ebp
  802931:	57                   	push   %edi
  802932:	56                   	push   %esi
  802933:	53                   	push   %ebx
  802934:	83 ec 0c             	sub    $0xc,%esp
  802937:	89 d3                	mov    %edx,%ebx
  LWIP_ASSERT("dhcp_option: dhcp->options_out_len + 2 + option_len <= DHCP_OPTIONS_LEN", dhcp->options_out_len + 2U + option_len <= DHCP_OPTIONS_LEN);
  802939:	0f b7 50 24          	movzwl 0x24(%eax),%edx
  80293d:	0f b6 f9             	movzbl %cl,%edi
  802940:	0f b7 f2             	movzwl %dx,%esi
  802943:	8d 74 37 02          	lea    0x2(%edi,%esi,1),%esi
  802947:	83 fe 44             	cmp    $0x44,%esi
  80294a:	77 34                	ja     802980 <dhcp_option+0x52>
  dhcp->msg_out->options[dhcp->options_out_len++] = option_type;
  80294c:	8b 70 20             	mov    0x20(%eax),%esi
  80294f:	8d 7a 01             	lea    0x1(%edx),%edi
  802952:	66 89 78 24          	mov    %di,0x24(%eax)
  802956:	0f b7 d2             	movzwl %dx,%edx
  802959:	88 9c 16 f0 00 00 00 	mov    %bl,0xf0(%esi,%edx,1)
  dhcp->msg_out->options[dhcp->options_out_len++] = option_len;
  802960:	8b 58 20             	mov    0x20(%eax),%ebx
  802963:	0f b7 50 24          	movzwl 0x24(%eax),%edx
  802967:	8d 72 01             	lea    0x1(%edx),%esi
  80296a:	66 89 70 24          	mov    %si,0x24(%eax)
  80296e:	0f b7 d2             	movzwl %dx,%edx
  802971:	88 8c 13 f0 00 00 00 	mov    %cl,0xf0(%ebx,%edx,1)
}
  802978:	8d 65 f4             	lea    -0xc(%ebp),%esp
  80297b:	5b                   	pop    %ebx
  80297c:	5e                   	pop    %esi
  80297d:	5f                   	pop    %edi
  80297e:	5d                   	pop    %ebp
  80297f:	c3                   	ret    
  LWIP_ASSERT("dhcp_option: dhcp->options_out_len + 2 + option_len <= DHCP_OPTIONS_LEN", dhcp->options_out_len + 2U + option_len <= DHCP_OPTIONS_LEN);
  802980:	83 ec 04             	sub    $0x4,%esp
  802983:	68 f0 10 81 00       	push   $0x8110f0
  802988:	68 5a 04 00 00       	push   $0x45a
  80298d:	68 02 14 81 00       	push   $0x811402
  802992:	e8 3f bb 00 00       	call   80e4d6 <_panic>

00802997 <dhcp_option_short>:
{
  802997:	55                   	push   %ebp
  802998:	89 e5                	mov    %esp,%ebp
  80299a:	56                   	push   %esi
  80299b:	53                   	push   %ebx
  80299c:	89 d1                	mov    %edx,%ecx
  LWIP_ASSERT("dhcp_option_short: dhcp->options_out_len + 2 <= DHCP_OPTIONS_LEN", dhcp->options_out_len + 2U <= DHCP_OPTIONS_LEN);
  80299e:	0f b7 50 24          	movzwl 0x24(%eax),%edx
  8029a2:	0f b7 da             	movzwl %dx,%ebx
  8029a5:	83 c3 02             	add    $0x2,%ebx
  8029a8:	83 fb 44             	cmp    $0x44,%ebx
  8029ab:	77 33                	ja     8029e0 <dhcp_option_short+0x49>
  dhcp->msg_out->options[dhcp->options_out_len++] = (u8_t)((value & 0xff00U) >> 8);
  8029ad:	8b 58 20             	mov    0x20(%eax),%ebx
  8029b0:	8d 72 01             	lea    0x1(%edx),%esi
  8029b3:	66 89 70 24          	mov    %si,0x24(%eax)
  8029b7:	0f b7 d2             	movzwl %dx,%edx
  8029ba:	88 ac 13 f0 00 00 00 	mov    %ch,0xf0(%ebx,%edx,1)
  dhcp->msg_out->options[dhcp->options_out_len++] = (u8_t) (value & 0x00ffU);
  8029c1:	8b 58 20             	mov    0x20(%eax),%ebx
  8029c4:	0f b7 50 24          	movzwl 0x24(%eax),%edx
  8029c8:	8d 72 01             	lea    0x1(%edx),%esi
  8029cb:	66 89 70 24          	mov    %si,0x24(%eax)
  8029cf:	0f b7 d2             	movzwl %dx,%edx
  8029d2:	88 8c 13 f0 00 00 00 	mov    %cl,0xf0(%ebx,%edx,1)
}
  8029d9:	8d 65 f8             	lea    -0x8(%ebp),%esp
  8029dc:	5b                   	pop    %ebx
  8029dd:	5e                   	pop    %esi
  8029de:	5d                   	pop    %ebp
  8029df:	c3                   	ret    
  LWIP_ASSERT("dhcp_option_short: dhcp->options_out_len + 2 <= DHCP_OPTIONS_LEN", dhcp->options_out_len + 2U <= DHCP_OPTIONS_LEN);
  8029e0:	83 ec 04             	sub    $0x4,%esp
  8029e3:	68 38 11 81 00       	push   $0x811138
  8029e8:	68 6c 04 00 00       	push   $0x46c
  8029ed:	68 02 14 81 00       	push   $0x811402
  8029f2:	e8 df ba 00 00       	call   80e4d6 <_panic>

008029f7 <dhcp_option_trailer>:
{
  8029f7:	55                   	push   %ebp
  8029f8:	89 e5                	mov    %esp,%ebp
  8029fa:	53                   	push   %ebx
  8029fb:	83 ec 04             	sub    $0x4,%esp
  LWIP_ERROR("dhcp_option_trailer: dhcp != NULL", (dhcp != NULL), return;);
  8029fe:	85 c0                	test   %eax,%eax
  802a00:	74 27                	je     802a29 <dhcp_option_trailer+0x32>
  802a02:	89 c2                	mov    %eax,%edx
  LWIP_ASSERT("dhcp_option_trailer: dhcp->msg_out != NULL\n", dhcp->msg_out != NULL);
  802a04:	8b 48 20             	mov    0x20(%eax),%ecx
  802a07:	85 c9                	test   %ecx,%ecx
  802a09:	74 35                	je     802a40 <dhcp_option_trailer+0x49>
  LWIP_ASSERT("dhcp_option_trailer: dhcp->options_out_len < DHCP_OPTIONS_LEN\n", dhcp->options_out_len < DHCP_OPTIONS_LEN);
  802a0b:	0f b7 40 24          	movzwl 0x24(%eax),%eax
  802a0f:	66 83 f8 43          	cmp    $0x43,%ax
  802a13:	77 42                	ja     802a57 <dhcp_option_trailer+0x60>
  dhcp->msg_out->options[dhcp->options_out_len++] = DHCP_OPTION_END;
  802a15:	8d 58 01             	lea    0x1(%eax),%ebx
  802a18:	66 89 5a 24          	mov    %bx,0x24(%edx)
  802a1c:	0f b7 c0             	movzwl %ax,%eax
  802a1f:	c6 84 01 f0 00 00 00 	movb   $0xff,0xf0(%ecx,%eax,1)
  802a26:	ff 
  while ((dhcp->options_out_len < DHCP_MIN_OPTIONS_LEN) || (dhcp->options_out_len & 3)) {
  802a27:	eb 5a                	jmp    802a83 <dhcp_option_trailer+0x8c>
  LWIP_ERROR("dhcp_option_trailer: dhcp != NULL", (dhcp != NULL), return;);
  802a29:	83 ec 04             	sub    $0x4,%esp
  802a2c:	68 7c 11 81 00       	push   $0x81117c
  802a31:	68 80 05 00 00       	push   $0x580
  802a36:	68 02 14 81 00       	push   $0x811402
  802a3b:	e8 96 ba 00 00       	call   80e4d6 <_panic>
  LWIP_ASSERT("dhcp_option_trailer: dhcp->msg_out != NULL\n", dhcp->msg_out != NULL);
  802a40:	83 ec 04             	sub    $0x4,%esp
  802a43:	68 a0 11 81 00       	push   $0x8111a0
  802a48:	68 81 05 00 00       	push   $0x581
  802a4d:	68 02 14 81 00       	push   $0x811402
  802a52:	e8 7f ba 00 00       	call   80e4d6 <_panic>
  LWIP_ASSERT("dhcp_option_trailer: dhcp->options_out_len < DHCP_OPTIONS_LEN\n", dhcp->options_out_len < DHCP_OPTIONS_LEN);
  802a57:	83 ec 04             	sub    $0x4,%esp
  802a5a:	68 cc 11 81 00       	push   $0x8111cc
  802a5f:	68 82 05 00 00       	push   $0x582
  802a64:	68 02 14 81 00       	push   $0x811402
  802a69:	e8 68 ba 00 00       	call   80e4d6 <_panic>
    dhcp->msg_out->options[dhcp->options_out_len++] = 0;
  802a6e:	8b 4a 20             	mov    0x20(%edx),%ecx
  802a71:	8d 58 01             	lea    0x1(%eax),%ebx
  802a74:	66 89 5a 24          	mov    %bx,0x24(%edx)
  802a78:	0f b7 c0             	movzwl %ax,%eax
  802a7b:	c6 84 01 f0 00 00 00 	movb   $0x0,0xf0(%ecx,%eax,1)
  802a82:	00 
  while ((dhcp->options_out_len < DHCP_MIN_OPTIONS_LEN) || (dhcp->options_out_len & 3)) {
  802a83:	0f b7 42 24          	movzwl 0x24(%edx),%eax
  802a87:	66 83 f8 43          	cmp    $0x43,%ax
  802a8b:	76 e1                	jbe    802a6e <dhcp_option_trailer+0x77>
  802a8d:	a8 03                	test   $0x3,%al
  802a8f:	74 17                	je     802aa8 <dhcp_option_trailer+0xb1>
    LWIP_ASSERT("dhcp_option_trailer: dhcp->options_out_len < DHCP_OPTIONS_LEN\n", dhcp->options_out_len < DHCP_OPTIONS_LEN);
  802a91:	83 ec 04             	sub    $0x4,%esp
  802a94:	68 cc 11 81 00       	push   $0x8111cc
  802a99:	68 87 05 00 00       	push   $0x587
  802a9e:	68 02 14 81 00       	push   $0x811402
  802aa3:	e8 2e ba 00 00       	call   80e4d6 <_panic>
}
  802aa8:	8b 5d fc             	mov    -0x4(%ebp),%ebx
  802aab:	c9                   	leave  
  802aac:	c3                   	ret    

00802aad <dhcp_option_long>:
{
  802aad:	55                   	push   %ebp
  802aae:	89 e5                	mov    %esp,%ebp
  802ab0:	56                   	push   %esi
  802ab1:	53                   	push   %ebx
  LWIP_ASSERT("dhcp_option_long: dhcp->options_out_len + 4 <= DHCP_OPTIONS_LEN", dhcp->options_out_len + 4U <= DHCP_OPTIONS_LEN);
  802ab2:	0f b7 48 24          	movzwl 0x24(%eax),%ecx
  802ab6:	0f b7 d9             	movzwl %cx,%ebx
  802ab9:	83 c3 04             	add    $0x4,%ebx
  802abc:	83 fb 44             	cmp    $0x44,%ebx
  802abf:	77 6d                	ja     802b2e <dhcp_option_long+0x81>
  dhcp->msg_out->options[dhcp->options_out_len++] = (u8_t)((value & 0xff000000UL) >> 24);
  802ac1:	8d 71 01             	lea    0x1(%ecx),%esi
  802ac4:	66 89 70 24          	mov    %si,0x24(%eax)
  802ac8:	0f b7 c9             	movzwl %cx,%ecx
  802acb:	89 d3                	mov    %edx,%ebx
  802acd:	c1 eb 18             	shr    $0x18,%ebx
  802ad0:	8b 70 20             	mov    0x20(%eax),%esi
  802ad3:	88 9c 0e f0 00 00 00 	mov    %bl,0xf0(%esi,%ecx,1)
  dhcp->msg_out->options[dhcp->options_out_len++] = (u8_t)((value & 0x00ff0000UL) >> 16);
  802ada:	0f b7 48 24          	movzwl 0x24(%eax),%ecx
  802ade:	8d 71 01             	lea    0x1(%ecx),%esi
  802ae1:	66 89 70 24          	mov    %si,0x24(%eax)
  802ae5:	0f b7 c9             	movzwl %cx,%ecx
  802ae8:	89 d3                	mov    %edx,%ebx
  802aea:	c1 eb 10             	shr    $0x10,%ebx
  802aed:	8b 70 20             	mov    0x20(%eax),%esi
  802af0:	88 9c 0e f0 00 00 00 	mov    %bl,0xf0(%esi,%ecx,1)
  dhcp->msg_out->options[dhcp->options_out_len++] = (u8_t)((value & 0x0000ff00UL) >> 8);
  802af7:	8b 58 20             	mov    0x20(%eax),%ebx
  802afa:	0f b7 48 24          	movzwl 0x24(%eax),%ecx
  802afe:	8d 71 01             	lea    0x1(%ecx),%esi
  802b01:	66 89 70 24          	mov    %si,0x24(%eax)
  802b05:	0f b7 c9             	movzwl %cx,%ecx
  802b08:	88 b4 0b f0 00 00 00 	mov    %dh,0xf0(%ebx,%ecx,1)
  dhcp->msg_out->options[dhcp->options_out_len++] = (u8_t)((value & 0x000000ffUL));
  802b0f:	8b 58 20             	mov    0x20(%eax),%ebx
  802b12:	0f b7 48 24          	movzwl 0x24(%eax),%ecx
  802b16:	8d 71 01             	lea    0x1(%ecx),%esi
  802b19:	66 89 70 24          	mov    %si,0x24(%eax)
  802b1d:	0f b7 c9             	movzwl %cx,%ecx
  802b20:	88 94 0b f0 00 00 00 	mov    %dl,0xf0(%ebx,%ecx,1)
}
  802b27:	8d 65 f8             	lea    -0x8(%ebp),%esp
  802b2a:	5b                   	pop    %ebx
  802b2b:	5e                   	pop    %esi
  802b2c:	5d                   	pop    %ebp
  802b2d:	c3                   	ret    
  LWIP_ASSERT("dhcp_option_long: dhcp->options_out_len + 4 <= DHCP_OPTIONS_LEN", dhcp->options_out_len + 4U <= DHCP_OPTIONS_LEN);
  802b2e:	83 ec 04             	sub    $0x4,%esp
  802b31:	68 0c 12 81 00       	push   $0x81120c
  802b36:	68 74 04 00 00       	push   $0x474
  802b3b:	68 02 14 81 00       	push   $0x811402
  802b40:	e8 91 b9 00 00       	call   80e4d6 <_panic>

00802b45 <dhcp_create_request>:
{
  802b45:	55                   	push   %ebp
  802b46:	89 e5                	mov    %esp,%ebp
  802b48:	57                   	push   %edi
  802b49:	56                   	push   %esi
  802b4a:	53                   	push   %ebx
  802b4b:	83 ec 0c             	sub    $0xc,%esp
  LWIP_ERROR("dhcp_create_request: netif != NULL", (netif != NULL), return ERR_ARG;);
  802b4e:	85 c0                	test   %eax,%eax
  802b50:	0f 84 d8 00 00 00    	je     802c2e <dhcp_create_request+0xe9>
  802b56:	89 c6                	mov    %eax,%esi
  dhcp = netif->dhcp;
  802b58:	8b 58 20             	mov    0x20(%eax),%ebx
  LWIP_ERROR("dhcp_create_request: dhcp != NULL", (dhcp != NULL), return ERR_VAL;);
  802b5b:	85 db                	test   %ebx,%ebx
  802b5d:	0f 84 e2 00 00 00    	je     802c45 <dhcp_create_request+0x100>
  LWIP_ASSERT("dhcp_create_request: dhcp->p_out == NULL", dhcp->p_out == NULL);
  802b63:	83 7b 1c 00          	cmpl   $0x0,0x1c(%ebx)
  802b67:	0f 85 ef 00 00 00    	jne    802c5c <dhcp_create_request+0x117>
  LWIP_ASSERT("dhcp_create_request: dhcp->msg_out == NULL", dhcp->msg_out == NULL);
  802b6d:	83 7b 20 00          	cmpl   $0x0,0x20(%ebx)
  802b71:	0f 85 fc 00 00 00    	jne    802c73 <dhcp_create_request+0x12e>
  dhcp->p_out = pbuf_alloc(PBUF_TRANSPORT, sizeof(struct dhcp_msg), PBUF_RAM);
  802b77:	83 ec 04             	sub    $0x4,%esp
  802b7a:	6a 00                	push   $0x0
  802b7c:	68 34 01 00 00       	push   $0x134
  802b81:	6a 00                	push   $0x0
  802b83:	e8 8a 1d 00 00       	call   804912 <pbuf_alloc>
  802b88:	89 43 1c             	mov    %eax,0x1c(%ebx)
  if (dhcp->p_out == NULL) {
  802b8b:	83 c4 10             	add    $0x10,%esp
  802b8e:	85 c0                	test   %eax,%eax
  802b90:	0f 84 9b 01 00 00    	je     802d31 <dhcp_create_request+0x1ec>
  LWIP_ASSERT("dhcp_create_request: check that first pbuf can hold struct dhcp_msg",
  802b96:	66 81 78 0a 33 01    	cmpw   $0x133,0xa(%eax)
  802b9c:	0f 86 e8 00 00 00    	jbe    802c8a <dhcp_create_request+0x145>
  dhcp->xid = xid++;
  802ba2:	8b 15 04 40 81 00    	mov    0x814004,%edx
  802ba8:	8d 4a 01             	lea    0x1(%edx),%ecx
  802bab:	89 0d 04 40 81 00    	mov    %ecx,0x814004
  802bb1:	89 53 04             	mov    %edx,0x4(%ebx)
  dhcp->msg_out = (struct dhcp_msg *)dhcp->p_out->payload;
  802bb4:	8b 40 04             	mov    0x4(%eax),%eax
  802bb7:	89 43 20             	mov    %eax,0x20(%ebx)
  dhcp->msg_out->op = DHCP_BOOTREQUEST;
  802bba:	c6 00 01             	movb   $0x1,(%eax)
  dhcp->msg_out->htype = DHCP_HTYPE_ETH;
  802bbd:	8b 43 20             	mov    0x20(%ebx),%eax
  802bc0:	c6 40 01 01          	movb   $0x1,0x1(%eax)
  dhcp->msg_out->hlen = DHCP_HLEN_ETH;
  802bc4:	8b 43 20             	mov    0x20(%ebx),%eax
  802bc7:	c6 40 02 06          	movb   $0x6,0x2(%eax)
  dhcp->msg_out->hops = 0;
  802bcb:	8b 43 20             	mov    0x20(%ebx),%eax
  802bce:	c6 40 03 00          	movb   $0x0,0x3(%eax)
  dhcp->msg_out->xid = htonl(dhcp->xid);
  802bd2:	8b 7b 20             	mov    0x20(%ebx),%edi
  802bd5:	83 ec 0c             	sub    $0xc,%esp
  802bd8:	ff 73 04             	push   0x4(%ebx)
  802bdb:	e8 c0 4a 00 00       	call   8076a0 <htonl>
  802be0:	89 47 04             	mov    %eax,0x4(%edi)
  dhcp->msg_out->secs = 0;
  802be3:	8b 43 20             	mov    0x20(%ebx),%eax
  802be6:	66 c7 40 08 00 00    	movw   $0x0,0x8(%eax)
  dhcp->msg_out->flags = 0;
  802bec:	8b 43 20             	mov    0x20(%ebx),%eax
  802bef:	66 c7 40 0a 00 00    	movw   $0x0,0xa(%eax)
  dhcp->msg_out->ciaddr.addr = netif->ip_addr.addr;
  802bf5:	8b 43 20             	mov    0x20(%ebx),%eax
  802bf8:	8b 56 04             	mov    0x4(%esi),%edx
  802bfb:	89 50 0c             	mov    %edx,0xc(%eax)
  dhcp->msg_out->yiaddr.addr = 0;
  802bfe:	8b 43 20             	mov    0x20(%ebx),%eax
  802c01:	c7 40 10 00 00 00 00 	movl   $0x0,0x10(%eax)
  dhcp->msg_out->siaddr.addr = 0;
  802c08:	8b 43 20             	mov    0x20(%ebx),%eax
  802c0b:	c7 40 14 00 00 00 00 	movl   $0x0,0x14(%eax)
  dhcp->msg_out->giaddr.addr = 0;
  802c12:	8b 43 20             	mov    0x20(%ebx),%eax
  802c15:	c7 40 18 00 00 00 00 	movl   $0x0,0x18(%eax)
  802c1c:	83 c4 10             	add    $0x10,%esp
  802c1f:	b8 00 00 00 00       	mov    $0x0,%eax
    dhcp->msg_out->chaddr[i] = (i < netif->hwaddr_len) ? netif->hwaddr[i] : 0/* pad byte*/;
  802c24:	bf 00 00 00 00       	mov    $0x0,%edi
  802c29:	e9 82 00 00 00       	jmp    802cb0 <dhcp_create_request+0x16b>
  LWIP_ERROR("dhcp_create_request: netif != NULL", (netif != NULL), return ERR_ARG;);
  802c2e:	83 ec 04             	sub    $0x4,%esp
  802c31:	68 4c 12 81 00       	push   $0x81124c
  802c36:	68 2d 05 00 00       	push   $0x52d
  802c3b:	68 02 14 81 00       	push   $0x811402
  802c40:	e8 91 b8 00 00       	call   80e4d6 <_panic>
  LWIP_ERROR("dhcp_create_request: dhcp != NULL", (dhcp != NULL), return ERR_VAL;);
  802c45:	83 ec 04             	sub    $0x4,%esp
  802c48:	68 70 12 81 00       	push   $0x811270
  802c4d:	68 2f 05 00 00       	push   $0x52f
  802c52:	68 02 14 81 00       	push   $0x811402
  802c57:	e8 7a b8 00 00       	call   80e4d6 <_panic>
  LWIP_ASSERT("dhcp_create_request: dhcp->p_out == NULL", dhcp->p_out == NULL);
  802c5c:	83 ec 04             	sub    $0x4,%esp
  802c5f:	68 94 12 81 00       	push   $0x811294
  802c64:	68 30 05 00 00       	push   $0x530
  802c69:	68 02 14 81 00       	push   $0x811402
  802c6e:	e8 63 b8 00 00       	call   80e4d6 <_panic>
  LWIP_ASSERT("dhcp_create_request: dhcp->msg_out == NULL", dhcp->msg_out == NULL);
  802c73:	83 ec 04             	sub    $0x4,%esp
  802c76:	68 c0 12 81 00       	push   $0x8112c0
  802c7b:	68 31 05 00 00       	push   $0x531
  802c80:	68 02 14 81 00       	push   $0x811402
  802c85:	e8 4c b8 00 00       	call   80e4d6 <_panic>
  LWIP_ASSERT("dhcp_create_request: check that first pbuf can hold struct dhcp_msg",
  802c8a:	83 ec 04             	sub    $0x4,%esp
  802c8d:	68 ec 12 81 00       	push   $0x8112ec
  802c92:	68 37 05 00 00       	push   $0x537
  802c97:	68 02 14 81 00       	push   $0x811402
  802c9c:	e8 35 b8 00 00       	call   80e4d6 <_panic>
    dhcp->msg_out->chaddr[i] = (i < netif->hwaddr_len) ? netif->hwaddr[i] : 0/* pad byte*/;
  802ca1:	8b 4b 20             	mov    0x20(%ebx),%ecx
  802ca4:	88 54 01 1c          	mov    %dl,0x1c(%ecx,%eax,1)
  for (i = 0; i < DHCP_CHADDR_LEN; i++) {
  802ca8:	83 c0 01             	add    $0x1,%eax
  802cab:	83 f8 10             	cmp    $0x10,%eax
  802cae:	74 12                	je     802cc2 <dhcp_create_request+0x17d>
    dhcp->msg_out->chaddr[i] = (i < netif->hwaddr_len) ? netif->hwaddr[i] : 0/* pad byte*/;
  802cb0:	0f b6 4e 24          	movzbl 0x24(%esi),%ecx
  802cb4:	89 fa                	mov    %edi,%edx
  802cb6:	66 39 c1             	cmp    %ax,%cx
  802cb9:	76 e6                	jbe    802ca1 <dhcp_create_request+0x15c>
  802cbb:	0f b6 54 06 25       	movzbl 0x25(%esi,%eax,1),%edx
  802cc0:	eb df                	jmp    802ca1 <dhcp_create_request+0x15c>
  802cc2:	b8 00 00 00 00       	mov    $0x0,%eax
    dhcp->msg_out->sname[i] = 0;
  802cc7:	8b 53 20             	mov    0x20(%ebx),%edx
  802cca:	c6 44 02 2c 00       	movb   $0x0,0x2c(%edx,%eax,1)
  for (i = 0; i < DHCP_SNAME_LEN; i++) {
  802ccf:	83 c0 01             	add    $0x1,%eax
  802cd2:	83 f8 40             	cmp    $0x40,%eax
  802cd5:	75 f0                	jne    802cc7 <dhcp_create_request+0x182>
  802cd7:	b8 00 00 00 00       	mov    $0x0,%eax
    dhcp->msg_out->file[i] = 0;
  802cdc:	8b 53 20             	mov    0x20(%ebx),%edx
  802cdf:	c6 44 02 6c 00       	movb   $0x0,0x6c(%edx,%eax,1)
  for (i = 0; i < DHCP_FILE_LEN; i++) {
  802ce4:	83 c0 01             	add    $0x1,%eax
  802ce7:	3d 80 00 00 00       	cmp    $0x80,%eax
  802cec:	75 ee                	jne    802cdc <dhcp_create_request+0x197>
  dhcp->msg_out->cookie = htonl(0x63825363UL);
  802cee:	8b 73 20             	mov    0x20(%ebx),%esi
  802cf1:	83 ec 0c             	sub    $0xc,%esp
  802cf4:	68 63 53 82 63       	push   $0x63825363
  802cf9:	e8 a2 49 00 00       	call   8076a0 <htonl>
  802cfe:	89 86 ec 00 00 00    	mov    %eax,0xec(%esi)
  dhcp->options_out_len = 0;
  802d04:	66 c7 43 24 00 00    	movw   $0x0,0x24(%ebx)
  802d0a:	83 c4 10             	add    $0x10,%esp
  802d0d:	b8 00 00 00 00       	mov    $0x0,%eax
    dhcp->msg_out->options[i] = (u8_t)i; /* for debugging only, no matter if truncated */
  802d12:	8b 53 20             	mov    0x20(%ebx),%edx
  802d15:	88 84 02 f0 00 00 00 	mov    %al,0xf0(%edx,%eax,1)
  for (i = 0; i < DHCP_OPTIONS_LEN; i++) {
  802d1c:	83 c0 01             	add    $0x1,%eax
  802d1f:	83 f8 44             	cmp    $0x44,%eax
  802d22:	75 ee                	jne    802d12 <dhcp_create_request+0x1cd>
  return ERR_OK;
  802d24:	b8 00 00 00 00       	mov    $0x0,%eax
}
  802d29:	8d 65 f4             	lea    -0xc(%ebp),%esp
  802d2c:	5b                   	pop    %ebx
  802d2d:	5e                   	pop    %esi
  802d2e:	5f                   	pop    %edi
  802d2f:	5d                   	pop    %ebp
  802d30:	c3                   	ret    
    return ERR_MEM;
  802d31:	b8 ff ff ff ff       	mov    $0xffffffff,%eax
  802d36:	eb f1                	jmp    802d29 <dhcp_create_request+0x1e4>

00802d38 <dhcp_delete_request>:
{
  802d38:	55                   	push   %ebp
  802d39:	89 e5                	mov    %esp,%ebp
  802d3b:	53                   	push   %ebx
  802d3c:	83 ec 04             	sub    $0x4,%esp
  LWIP_ERROR("dhcp_delete_request: netif != NULL", (netif != NULL), return;);
  802d3f:	85 c0                	test   %eax,%eax
  802d41:	74 33                	je     802d76 <dhcp_delete_request+0x3e>
  dhcp = netif->dhcp;
  802d43:	8b 58 20             	mov    0x20(%eax),%ebx
  LWIP_ERROR("dhcp_delete_request: dhcp != NULL", (dhcp != NULL), return;);
  802d46:	85 db                	test   %ebx,%ebx
  802d48:	74 43                	je     802d8d <dhcp_delete_request+0x55>
  LWIP_ASSERT("dhcp_delete_request: dhcp->p_out != NULL", dhcp->p_out != NULL);
  802d4a:	8b 43 1c             	mov    0x1c(%ebx),%eax
  802d4d:	85 c0                	test   %eax,%eax
  802d4f:	74 53                	je     802da4 <dhcp_delete_request+0x6c>
  LWIP_ASSERT("dhcp_delete_request: dhcp->msg_out != NULL", dhcp->msg_out != NULL);
  802d51:	83 7b 20 00          	cmpl   $0x0,0x20(%ebx)
  802d55:	74 64                	je     802dbb <dhcp_delete_request+0x83>
    pbuf_free(dhcp->p_out);
  802d57:	83 ec 0c             	sub    $0xc,%esp
  802d5a:	50                   	push   %eax
  802d5b:	e8 ec 1a 00 00       	call   80484c <pbuf_free>
  dhcp->p_out = NULL;
  802d60:	c7 43 1c 00 00 00 00 	movl   $0x0,0x1c(%ebx)
  dhcp->msg_out = NULL;
  802d67:	c7 43 20 00 00 00 00 	movl   $0x0,0x20(%ebx)
  802d6e:	83 c4 10             	add    $0x10,%esp
}
  802d71:	8b 5d fc             	mov    -0x4(%ebp),%ebx
  802d74:	c9                   	leave  
  802d75:	c3                   	ret    
  LWIP_ERROR("dhcp_delete_request: netif != NULL", (netif != NULL), return;);
  802d76:	83 ec 04             	sub    $0x4,%esp
  802d79:	68 30 13 81 00       	push   $0x811330
  802d7e:	68 69 05 00 00       	push   $0x569
  802d83:	68 02 14 81 00       	push   $0x811402
  802d88:	e8 49 b7 00 00       	call   80e4d6 <_panic>
  LWIP_ERROR("dhcp_delete_request: dhcp != NULL", (dhcp != NULL), return;);
  802d8d:	83 ec 04             	sub    $0x4,%esp
  802d90:	68 54 13 81 00       	push   $0x811354
  802d95:	68 6b 05 00 00       	push   $0x56b
  802d9a:	68 02 14 81 00       	push   $0x811402
  802d9f:	e8 32 b7 00 00       	call   80e4d6 <_panic>
  LWIP_ASSERT("dhcp_delete_request: dhcp->p_out != NULL", dhcp->p_out != NULL);
  802da4:	83 ec 04             	sub    $0x4,%esp
  802da7:	68 78 13 81 00       	push   $0x811378
  802dac:	68 6c 05 00 00       	push   $0x56c
  802db1:	68 02 14 81 00       	push   $0x811402
  802db6:	e8 1b b7 00 00       	call   80e4d6 <_panic>
  LWIP_ASSERT("dhcp_delete_request: dhcp->msg_out != NULL", dhcp->msg_out != NULL);
  802dbb:	83 ec 04             	sub    $0x4,%esp
  802dbe:	68 a4 13 81 00       	push   $0x8113a4
  802dc3:	68 6d 05 00 00       	push   $0x56d
  802dc8:	68 02 14 81 00       	push   $0x811402
  802dcd:	e8 04 b7 00 00       	call   80e4d6 <_panic>

00802dd2 <dhcp_rebind>:
{
  802dd2:	55                   	push   %ebp
  802dd3:	89 e5                	mov    %esp,%ebp
  802dd5:	57                   	push   %edi
  802dd6:	56                   	push   %esi
  802dd7:	53                   	push   %ebx
  802dd8:	83 ec 0c             	sub    $0xc,%esp
  802ddb:	89 c7                	mov    %eax,%edi
  struct dhcp *dhcp = netif->dhcp;
  802ddd:	8b 58 20             	mov    0x20(%eax),%ebx
  dhcp_set_state(dhcp, DHCP_REBINDING);
  802de0:	ba 04 00 00 00       	mov    $0x4,%edx
  802de5:	89 d8                	mov    %ebx,%eax
  802de7:	e8 c3 f9 ff ff       	call   8027af <dhcp_set_state>
  result = dhcp_create_request(netif);
  802dec:	89 f8                	mov    %edi,%eax
  802dee:	e8 52 fd ff ff       	call   802b45 <dhcp_create_request>
  802df3:	89 c6                	mov    %eax,%esi
  if (result == ERR_OK) {
  802df5:	84 c0                	test   %al,%al
  802df7:	74 3d                	je     802e36 <dhcp_rebind+0x64>
  dhcp->tries++;
  802df9:	0f b6 43 01          	movzbl 0x1(%ebx),%eax
  802dfd:	83 c0 01             	add    $0x1,%eax
  802e00:	88 43 01             	mov    %al,0x1(%ebx)
  msecs = dhcp->tries < 10 ? dhcp->tries * 1000 : 10 * 1000;
  802e03:	ba 10 27 00 00       	mov    $0x2710,%edx
  802e08:	3c 09                	cmp    $0x9,%al
  802e0a:	77 08                	ja     802e14 <dhcp_rebind+0x42>
  802e0c:	0f b6 c0             	movzbl %al,%eax
  802e0f:	66 69 d0 e8 03       	imul   $0x3e8,%ax,%dx
  dhcp->request_timeout = (msecs + DHCP_FINE_TIMER_MSECS - 1) / DHCP_FINE_TIMER_MSECS;
  802e14:	66 81 c2 f3 01       	add    $0x1f3,%dx
  802e19:	0f b7 d2             	movzwl %dx,%edx
  802e1c:	b9 d3 4d 62 10       	mov    $0x10624dd3,%ecx
  802e21:	89 d0                	mov    %edx,%eax
  802e23:	f7 e9                	imul   %ecx
  802e25:	c1 fa 05             	sar    $0x5,%edx
  802e28:	66 89 53 26          	mov    %dx,0x26(%ebx)
}
  802e2c:	89 f0                	mov    %esi,%eax
  802e2e:	8d 65 f4             	lea    -0xc(%ebp),%esp
  802e31:	5b                   	pop    %ebx
  802e32:	5e                   	pop    %esi
  802e33:	5f                   	pop    %edi
  802e34:	5d                   	pop    %ebp
  802e35:	c3                   	ret    
    dhcp_option(dhcp, DHCP_OPTION_MESSAGE_TYPE, DHCP_OPTION_MESSAGE_TYPE_LEN);
  802e36:	b9 01 00 00 00       	mov    $0x1,%ecx
  802e3b:	ba 35 00 00 00       	mov    $0x35,%edx
  802e40:	89 d8                	mov    %ebx,%eax
  802e42:	e8 e7 fa ff ff       	call   80292e <dhcp_option>
    dhcp_option_byte(dhcp, DHCP_REQUEST);
  802e47:	ba 03 00 00 00       	mov    $0x3,%edx
  802e4c:	89 d8                	mov    %ebx,%eax
  802e4e:	e8 9a fa ff ff       	call   8028ed <dhcp_option_byte>
    dhcp_option(dhcp, DHCP_OPTION_MAX_MSG_SIZE, DHCP_OPTION_MAX_MSG_SIZE_LEN);
  802e53:	b9 02 00 00 00       	mov    $0x2,%ecx
  802e58:	ba 39 00 00 00       	mov    $0x39,%edx
  802e5d:	89 d8                	mov    %ebx,%eax
  802e5f:	e8 ca fa ff ff       	call   80292e <dhcp_option>
    dhcp_option_short(dhcp, 576);
  802e64:	ba 40 02 00 00       	mov    $0x240,%edx
  802e69:	89 d8                	mov    %ebx,%eax
  802e6b:	e8 27 fb ff ff       	call   802997 <dhcp_option_short>
    dhcp_option_trailer(dhcp);
  802e70:	89 d8                	mov    %ebx,%eax
  802e72:	e8 80 fb ff ff       	call   8029f7 <dhcp_option_trailer>
    pbuf_realloc(dhcp->p_out, sizeof(struct dhcp_msg) - DHCP_OPTIONS_LEN + dhcp->options_out_len);
  802e77:	83 ec 08             	sub    $0x8,%esp
  802e7a:	0f b7 43 24          	movzwl 0x24(%ebx),%eax
  802e7e:	66 05 f0 00          	add    $0xf0,%ax
  802e82:	0f b7 c0             	movzwl %ax,%eax
  802e85:	50                   	push   %eax
  802e86:	ff 73 1c             	push   0x1c(%ebx)
  802e89:	e8 e3 1c 00 00       	call   804b71 <pbuf_realloc>
    udp_connect(dhcp->pcb, IP_ADDR_ANY, DHCP_SERVER_PORT);
  802e8e:	83 c4 0c             	add    $0xc,%esp
  802e91:	6a 43                	push   $0x43
  802e93:	68 a8 1c 81 00       	push   $0x811ca8
  802e98:	ff 73 08             	push   0x8(%ebx)
  802e9b:	e8 01 60 00 00       	call   808ea1 <udp_connect>
    udp_sendto_if(dhcp->pcb, dhcp->p_out, IP_ADDR_BROADCAST, DHCP_SERVER_PORT, netif);
  802ea0:	89 3c 24             	mov    %edi,(%esp)
  802ea3:	6a 43                	push   $0x43
  802ea5:	68 a4 1c 81 00       	push   $0x811ca4
  802eaa:	ff 73 1c             	push   0x1c(%ebx)
  802ead:	ff 73 08             	push   0x8(%ebx)
  802eb0:	e8 f7 5d 00 00       	call   808cac <udp_sendto_if>
    dhcp_delete_request(netif);
  802eb5:	83 c4 20             	add    $0x20,%esp
  802eb8:	89 f8                	mov    %edi,%eax
  802eba:	e8 79 fe ff ff       	call   802d38 <dhcp_delete_request>
  802ebf:	e9 35 ff ff ff       	jmp    802df9 <dhcp_rebind+0x27>

00802ec4 <dhcp_discover>:
{
  802ec4:	55                   	push   %ebp
  802ec5:	89 e5                	mov    %esp,%ebp
  802ec7:	57                   	push   %edi
  802ec8:	56                   	push   %esi
  802ec9:	53                   	push   %ebx
  802eca:	83 ec 0c             	sub    $0xc,%esp
  802ecd:	89 c7                	mov    %eax,%edi
  struct dhcp *dhcp = netif->dhcp;
  802ecf:	8b 58 20             	mov    0x20(%eax),%ebx
  ip_addr_set(&dhcp->offered_ip_addr, IP_ADDR_ANY);
  802ed2:	a1 a8 1c 81 00       	mov    0x811ca8,%eax
  802ed7:	89 43 30             	mov    %eax,0x30(%ebx)
  result = dhcp_create_request(netif);
  802eda:	89 f8                	mov    %edi,%eax
  802edc:	e8 64 fc ff ff       	call   802b45 <dhcp_create_request>
  802ee1:	89 c6                	mov    %eax,%esi
  if (result == ERR_OK) {
  802ee3:	84 c0                	test   %al,%al
  802ee5:	74 40                	je     802f27 <dhcp_discover+0x63>
  dhcp->tries++;
  802ee7:	0f b6 43 01          	movzbl 0x1(%ebx),%eax
  802eeb:	83 c0 01             	add    $0x1,%eax
  802eee:	88 43 01             	mov    %al,0x1(%ebx)
  msecs = dhcp->tries < 4 ? (dhcp->tries + 1) * 1000 : 10 * 1000;
  802ef1:	ba 10 27 00 00       	mov    $0x2710,%edx
  802ef6:	3c 03                	cmp    $0x3,%al
  802ef8:	77 0b                	ja     802f05 <dhcp_discover+0x41>
  802efa:	0f b6 c0             	movzbl %al,%eax
  802efd:	83 c0 01             	add    $0x1,%eax
  802f00:	66 69 d0 e8 03       	imul   $0x3e8,%ax,%dx
  dhcp->request_timeout = (msecs + DHCP_FINE_TIMER_MSECS - 1) / DHCP_FINE_TIMER_MSECS;
  802f05:	66 81 c2 f3 01       	add    $0x1f3,%dx
  802f0a:	0f b7 d2             	movzwl %dx,%edx
  802f0d:	b9 d3 4d 62 10       	mov    $0x10624dd3,%ecx
  802f12:	89 d0                	mov    %edx,%eax
  802f14:	f7 e9                	imul   %ecx
  802f16:	c1 fa 05             	sar    $0x5,%edx
  802f19:	66 89 53 26          	mov    %dx,0x26(%ebx)
}
  802f1d:	89 f0                	mov    %esi,%eax
  802f1f:	8d 65 f4             	lea    -0xc(%ebp),%esp
  802f22:	5b                   	pop    %ebx
  802f23:	5e                   	pop    %esi
  802f24:	5f                   	pop    %edi
  802f25:	5d                   	pop    %ebp
  802f26:	c3                   	ret    
    dhcp_option(dhcp, DHCP_OPTION_MESSAGE_TYPE, DHCP_OPTION_MESSAGE_TYPE_LEN);
  802f27:	b9 01 00 00 00       	mov    $0x1,%ecx
  802f2c:	ba 35 00 00 00       	mov    $0x35,%edx
  802f31:	89 d8                	mov    %ebx,%eax
  802f33:	e8 f6 f9 ff ff       	call   80292e <dhcp_option>
    dhcp_option_byte(dhcp, DHCP_DISCOVER);
  802f38:	ba 01 00 00 00       	mov    $0x1,%edx
  802f3d:	89 d8                	mov    %ebx,%eax
  802f3f:	e8 a9 f9 ff ff       	call   8028ed <dhcp_option_byte>
    dhcp_option(dhcp, DHCP_OPTION_MAX_MSG_SIZE, DHCP_OPTION_MAX_MSG_SIZE_LEN);
  802f44:	b9 02 00 00 00       	mov    $0x2,%ecx
  802f49:	ba 39 00 00 00       	mov    $0x39,%edx
  802f4e:	89 d8                	mov    %ebx,%eax
  802f50:	e8 d9 f9 ff ff       	call   80292e <dhcp_option>
    dhcp_option_short(dhcp, 576);
  802f55:	ba 40 02 00 00       	mov    $0x240,%edx
  802f5a:	89 d8                	mov    %ebx,%eax
  802f5c:	e8 36 fa ff ff       	call   802997 <dhcp_option_short>
    dhcp_option(dhcp, DHCP_OPTION_PARAMETER_REQUEST_LIST, 4/*num options*/);
  802f61:	b9 04 00 00 00       	mov    $0x4,%ecx
  802f66:	ba 37 00 00 00       	mov    $0x37,%edx
  802f6b:	89 d8                	mov    %ebx,%eax
  802f6d:	e8 bc f9 ff ff       	call   80292e <dhcp_option>
    dhcp_option_byte(dhcp, DHCP_OPTION_SUBNET_MASK);
  802f72:	ba 01 00 00 00       	mov    $0x1,%edx
  802f77:	89 d8                	mov    %ebx,%eax
  802f79:	e8 6f f9 ff ff       	call   8028ed <dhcp_option_byte>
    dhcp_option_byte(dhcp, DHCP_OPTION_ROUTER);
  802f7e:	ba 03 00 00 00       	mov    $0x3,%edx
  802f83:	89 d8                	mov    %ebx,%eax
  802f85:	e8 63 f9 ff ff       	call   8028ed <dhcp_option_byte>
    dhcp_option_byte(dhcp, DHCP_OPTION_BROADCAST);
  802f8a:	ba 1c 00 00 00       	mov    $0x1c,%edx
  802f8f:	89 d8                	mov    %ebx,%eax
  802f91:	e8 57 f9 ff ff       	call   8028ed <dhcp_option_byte>
    dhcp_option_byte(dhcp, DHCP_OPTION_DNS_SERVER);
  802f96:	ba 06 00 00 00       	mov    $0x6,%edx
  802f9b:	89 d8                	mov    %ebx,%eax
  802f9d:	e8 4b f9 ff ff       	call   8028ed <dhcp_option_byte>
    dhcp_option_trailer(dhcp);
  802fa2:	89 d8                	mov    %ebx,%eax
  802fa4:	e8 4e fa ff ff       	call   8029f7 <dhcp_option_trailer>
    pbuf_realloc(dhcp->p_out, sizeof(struct dhcp_msg) - DHCP_OPTIONS_LEN + dhcp->options_out_len);
  802fa9:	83 ec 08             	sub    $0x8,%esp
  802fac:	0f b7 43 24          	movzwl 0x24(%ebx),%eax
  802fb0:	66 05 f0 00          	add    $0xf0,%ax
  802fb4:	0f b7 c0             	movzwl %ax,%eax
  802fb7:	50                   	push   %eax
  802fb8:	ff 73 1c             	push   0x1c(%ebx)
  802fbb:	e8 b1 1b 00 00       	call   804b71 <pbuf_realloc>
    udp_connect(dhcp->pcb, IP_ADDR_ANY, DHCP_SERVER_PORT);
